ARM GAS  /tmp/ccrMcL7D.s 			page 1


   1              		.cpu cortex-m0
   2              		.eabi_attribute 20, 1
   3              		.eabi_attribute 21, 1
   4              		.eabi_attribute 23, 3
   5              		.eabi_attribute 24, 1
   6              		.eabi_attribute 25, 1
   7              		.eabi_attribute 26, 1
   8              		.eabi_attribute 30, 1
   9              		.eabi_attribute 34, 0
  10              		.eabi_attribute 18, 4
  11              		.file	"mb.c"
  12              		.text
  13              	.Ltext0:
  14              		.cfi_sections	.debug_frame
  15              		.section	.text.eMBInit,"ax",%progbits
  16              		.align	1
  17              		.global	eMBInit
  18              		.arch armv6s-m
  19              		.syntax unified
  20              		.code	16
  21              		.thumb_func
  22              		.fpu softvfp
  24              	eMBInit:
  25              	.LVL0:
  26              	.LFB37:
  27              		.file 1 "modbus/mb.c"
   1:modbus/mb.c   **** /* 
   2:modbus/mb.c   ****  * FreeModbus Libary: A portable Modbus implementation for Modbus ASCII/RTU.
   3:modbus/mb.c   ****  * Copyright (c) 2006-2018 Christian Walter <cwalter@embedded-solutions.at>
   4:modbus/mb.c   ****  * All rights reserved.
   5:modbus/mb.c   ****  *
   6:modbus/mb.c   ****  * Redistribution and use in source and binary forms, with or without
   7:modbus/mb.c   ****  * modification, are permitted provided that the following conditions
   8:modbus/mb.c   ****  * are met:
   9:modbus/mb.c   ****  * 1. Redistributions of source code must retain the above copyright
  10:modbus/mb.c   ****  *    notice, this list of conditions and the following disclaimer.
  11:modbus/mb.c   ****  * 2. Redistributions in binary form must reproduce the above copyright
  12:modbus/mb.c   ****  *    notice, this list of conditions and the following disclaimer in the
  13:modbus/mb.c   ****  *    documentation and/or other materials provided with the distribution.
  14:modbus/mb.c   ****  * 3. The name of the author may not be used to endorse or promote products
  15:modbus/mb.c   ****  *    derived from this software without specific prior written permission.
  16:modbus/mb.c   ****  *
  17:modbus/mb.c   ****  * THIS SOFTWARE IS PROVIDED BY THE AUTHOR ``AS IS'' AND ANY EXPRESS OR
  18:modbus/mb.c   ****  * IMPLIED WARRANTIES, INCLUDING, BUT NOT LIMITED TO, THE IMPLIED WARRANTIES
  19:modbus/mb.c   ****  * OF MERCHANTABILITY AND FITNESS FOR A PARTICULAR PURPOSE ARE DISCLAIMED.
  20:modbus/mb.c   ****  * IN NO EVENT SHALL THE AUTHOR BE LIABLE FOR ANY DIRECT, INDIRECT,
  21:modbus/mb.c   ****  * INCIDENTAL, SPECIAL, EXEMPLARY, OR CONSEQUENTIAL DAMAGES (INCLUDING, BUT
  22:modbus/mb.c   ****  * NOT LIMITED TO, PROCUREMENT OF SUBSTITUTE GOODS OR SERVICES; LOSS OF USE,
  23:modbus/mb.c   ****  * DATA, OR PROFITS; OR BUSINESS INTERRUPTION) HOWEVER CAUSED AND ON ANY
  24:modbus/mb.c   ****  * THEORY OF LIABILITY, WHETHER IN CONTRACT, STRICT LIABILITY, OR TORT
  25:modbus/mb.c   ****  * (INCLUDING NEGLIGENCE OR OTHERWISE) ARISING IN ANY WAY OUT OF THE USE OF
  26:modbus/mb.c   ****  * THIS SOFTWARE, EVEN IF ADVISED OF THE POSSIBILITY OF SUCH DAMAGE.
  27:modbus/mb.c   ****  *
  28:modbus/mb.c   ****  */
  29:modbus/mb.c   **** 
  30:modbus/mb.c   **** /* ----------------------- System includes ----------------------------------*/
  31:modbus/mb.c   **** #include "stdlib.h"
ARM GAS  /tmp/ccrMcL7D.s 			page 2


  32:modbus/mb.c   **** #include "string.h"
  33:modbus/mb.c   **** 
  34:modbus/mb.c   **** /* ----------------------- Platform includes --------------------------------*/
  35:modbus/mb.c   **** #include "port/port.h"
  36:modbus/mb.c   **** 
  37:modbus/mb.c   **** /* ----------------------- Modbus includes ----------------------------------*/
  38:modbus/mb.c   **** #include "include/mb.h"
  39:modbus/mb.c   **** #include "include/mbconfig.h"
  40:modbus/mb.c   **** #include "include/mbframe.h"
  41:modbus/mb.c   **** #include "include/mbproto.h"
  42:modbus/mb.c   **** #include "include/mbfunc.h"
  43:modbus/mb.c   **** 
  44:modbus/mb.c   **** #include "include/mbport.h"
  45:modbus/mb.c   **** #if MB_RTU_ENABLED == 1
  46:modbus/mb.c   **** #include "rtu/mbrtu.h"
  47:modbus/mb.c   **** #endif
  48:modbus/mb.c   **** #if MB_ASCII_ENABLED == 0
  49:modbus/mb.c   **** //#include "mbascii.h"
  50:modbus/mb.c   **** #endif
  51:modbus/mb.c   **** #if MB_TCP_ENABLED == 0
  52:modbus/mb.c   **** //#include "mbtcp.h"
  53:modbus/mb.c   **** #endif
  54:modbus/mb.c   **** 
  55:modbus/mb.c   **** #ifndef MB_PORT_HAS_CLOSE
  56:modbus/mb.c   **** #define MB_PORT_HAS_CLOSE 0
  57:modbus/mb.c   **** #endif
  58:modbus/mb.c   **** 
  59:modbus/mb.c   **** /* ----------------------- Static variables ---------------------------------*/
  60:modbus/mb.c   **** 
  61:modbus/mb.c   **** static UCHAR    ucMBAddress;
  62:modbus/mb.c   **** static eMBMode  eMBCurrentMode;
  63:modbus/mb.c   **** 
  64:modbus/mb.c   **** static enum
  65:modbus/mb.c   **** {
  66:modbus/mb.c   ****     STATE_ENABLED,
  67:modbus/mb.c   ****     STATE_DISABLED,
  68:modbus/mb.c   ****     STATE_NOT_INITIALIZED
  69:modbus/mb.c   **** } eMBState = STATE_NOT_INITIALIZED;
  70:modbus/mb.c   **** 
  71:modbus/mb.c   **** /* Functions pointer which are initialized in eMBInit( ). Depending on the
  72:modbus/mb.c   ****  * mode (RTU or ASCII) the are set to the correct implementations.
  73:modbus/mb.c   ****  */
  74:modbus/mb.c   **** static peMBFrameSend peMBFrameSendCur;
  75:modbus/mb.c   **** static pvMBFrameStart pvMBFrameStartCur;
  76:modbus/mb.c   **** static pvMBFrameStop pvMBFrameStopCur;
  77:modbus/mb.c   **** static peMBFrameReceive peMBFrameReceiveCur;
  78:modbus/mb.c   **** static pvMBFrameClose pvMBFrameCloseCur;
  79:modbus/mb.c   **** 
  80:modbus/mb.c   **** /* Callback functions required by the porting layer. They are called when
  81:modbus/mb.c   ****  * an external event has happend which includes a timeout or the reception
  82:modbus/mb.c   ****  * or transmission of a character.
  83:modbus/mb.c   ****  */
  84:modbus/mb.c   **** BOOL( *pxMBFrameCBByteReceived ) ( void );
  85:modbus/mb.c   **** BOOL( *pxMBFrameCBTransmitterEmpty ) ( void );
  86:modbus/mb.c   **** BOOL( *pxMBPortCBTimerExpired ) ( void );
  87:modbus/mb.c   **** 
  88:modbus/mb.c   **** BOOL( *pxMBFrameCBReceiveFSMCur ) ( void );
ARM GAS  /tmp/ccrMcL7D.s 			page 3


  89:modbus/mb.c   **** BOOL( *pxMBFrameCBTransmitFSMCur ) ( void );
  90:modbus/mb.c   **** 
  91:modbus/mb.c   **** /* An array of Modbus functions handlers which associates Modbus function
  92:modbus/mb.c   ****  * codes with implementing functions.
  93:modbus/mb.c   ****  */
  94:modbus/mb.c   **** static xMBFunctionHandler xFuncHandlers[MB_FUNC_HANDLERS_MAX] = {
  95:modbus/mb.c   **** #if MB_FUNC_OTHER_REP_SLAVEID_ENABLED > 0
  96:modbus/mb.c   ****     {MB_FUNC_OTHER_REPORT_SLAVEID, eMBFuncReportSlaveID},
  97:modbus/mb.c   **** #endif
  98:modbus/mb.c   **** #if MB_FUNC_READ_INPUT_ENABLED > 0
  99:modbus/mb.c   ****     {MB_FUNC_READ_INPUT_REGISTER, eMBFuncReadInputRegister},
 100:modbus/mb.c   **** #endif
 101:modbus/mb.c   **** #if MB_FUNC_READ_HOLDING_ENABLED > 0
 102:modbus/mb.c   ****     {MB_FUNC_READ_HOLDING_REGISTER, eMBFuncReadHoldingRegister},
 103:modbus/mb.c   **** #endif
 104:modbus/mb.c   **** #if MB_FUNC_WRITE_MULTIPLE_HOLDING_ENABLED > 0
 105:modbus/mb.c   ****     {MB_FUNC_WRITE_MULTIPLE_REGISTERS, eMBFuncWriteMultipleHoldingRegister},
 106:modbus/mb.c   **** #endif
 107:modbus/mb.c   **** #if MB_FUNC_WRITE_HOLDING_ENABLED > 0
 108:modbus/mb.c   ****     {MB_FUNC_WRITE_REGISTER, eMBFuncWriteHoldingRegister},
 109:modbus/mb.c   **** #endif
 110:modbus/mb.c   **** #if MB_FUNC_READWRITE_HOLDING_ENABLED > 0
 111:modbus/mb.c   ****     {MB_FUNC_READWRITE_MULTIPLE_REGISTERS, eMBFuncReadWriteMultipleHoldingRegister},
 112:modbus/mb.c   **** #endif
 113:modbus/mb.c   **** #if MB_FUNC_READ_COILS_ENABLED > 0
 114:modbus/mb.c   ****     {MB_FUNC_READ_COILS, eMBFuncReadCoils},
 115:modbus/mb.c   **** #endif
 116:modbus/mb.c   **** #if MB_FUNC_WRITE_COIL_ENABLED > 0
 117:modbus/mb.c   ****     {MB_FUNC_WRITE_SINGLE_COIL, eMBFuncWriteCoil},
 118:modbus/mb.c   **** #endif
 119:modbus/mb.c   **** #if MB_FUNC_WRITE_MULTIPLE_COILS_ENABLED > 0
 120:modbus/mb.c   ****     {MB_FUNC_WRITE_MULTIPLE_COILS, eMBFuncWriteMultipleCoils},
 121:modbus/mb.c   **** #endif
 122:modbus/mb.c   **** #if MB_FUNC_READ_DISCRETE_INPUTS_ENABLED > 0
 123:modbus/mb.c   ****     {MB_FUNC_READ_DISCRETE_INPUTS, eMBFuncReadDiscreteInputs},
 124:modbus/mb.c   **** #endif
 125:modbus/mb.c   **** };
 126:modbus/mb.c   **** 
 127:modbus/mb.c   **** /* ----------------------- Start implementation -----------------------------*/
 128:modbus/mb.c   **** eMBErrorCode
 129:modbus/mb.c   **** eMBInit( eMBMode eMode, UCHAR ucSlaveAddress, UCHAR ucPort, ULONG ulBaudRate, eMBParity eParity )
 130:modbus/mb.c   **** {
  28              		.loc 1 130 1 view -0
  29              		.cfi_startproc
  30              		@ args = 4, pretend = 0, frame = 0
  31              		@ frame_needed = 0, uses_anonymous_args = 0
  32              		.loc 1 130 1 is_stmt 0 view .LVU1
  33 0000 70B5     		push	{r4, r5, r6, lr}
  34              	.LCFI0:
  35              		.cfi_def_cfa_offset 16
  36              		.cfi_offset 4, -16
  37              		.cfi_offset 5, -12
  38              		.cfi_offset 6, -8
  39              		.cfi_offset 14, -4
  40 0002 0D00     		movs	r5, r1
  41 0004 1100     		movs	r1, r2
  42              	.LVL1:
ARM GAS  /tmp/ccrMcL7D.s 			page 4


  43              		.loc 1 130 1 view .LVU2
  44 0006 1A00     		movs	r2, r3
  45              	.LVL2:
  46              		.loc 1 130 1 view .LVU3
  47 0008 04AB     		add	r3, sp, #16
  48              	.LVL3:
  49              		.loc 1 130 1 view .LVU4
  50 000a 1B78     		ldrb	r3, [r3]
  51              	.LVL4:
 131:modbus/mb.c   ****     eMBErrorCode    eStatus = MB_ENOERR;
  52              		.loc 1 131 5 is_stmt 1 view .LVU5
 132:modbus/mb.c   **** 
 133:modbus/mb.c   ****     /* check preconditions */
 134:modbus/mb.c   ****     if( ( ucSlaveAddress == MB_ADDRESS_BROADCAST ) ||
  53              		.loc 1 134 5 view .LVU6
 135:modbus/mb.c   ****         ( ucSlaveAddress < MB_ADDRESS_MIN ) || ( ucSlaveAddress > MB_ADDRESS_MAX ) )
  54              		.loc 1 135 45 is_stmt 0 view .LVU7
  55 000c 6C1E     		subs	r4, r5, #1
  56 000e E4B2     		uxtb	r4, r4
 134:modbus/mb.c   ****         ( ucSlaveAddress < MB_ADDRESS_MIN ) || ( ucSlaveAddress > MB_ADDRESS_MAX ) )
  57              		.loc 1 134 7 view .LVU8
  58 0010 F62C     		cmp	r4, #246
  59 0012 2AD8     		bhi	.L3
 136:modbus/mb.c   ****     {
 137:modbus/mb.c   ****         eStatus = MB_EINVAL;
 138:modbus/mb.c   ****     }
 139:modbus/mb.c   ****     else
 140:modbus/mb.c   ****     {
 141:modbus/mb.c   ****         ucMBAddress = ucSlaveAddress;
  60              		.loc 1 141 9 is_stmt 1 view .LVU9
  61              		.loc 1 141 21 is_stmt 0 view .LVU10
  62 0014 174C     		ldr	r4, .L7
  63 0016 2570     		strb	r5, [r4]
 142:modbus/mb.c   **** 
 143:modbus/mb.c   ****         switch ( eMode )
  64              		.loc 1 143 9 is_stmt 1 view .LVU11
  65 0018 0028     		cmp	r0, #0
  66 001a 01D0     		beq	.L6
 144:modbus/mb.c   ****         {
 145:modbus/mb.c   **** #if MB_RTU_ENABLED > 0
 146:modbus/mb.c   ****         case MB_RTU:
 147:modbus/mb.c   ****             pvMBFrameStartCur = eMBRTUStart;
 148:modbus/mb.c   ****             pvMBFrameStopCur = eMBRTUStop;
 149:modbus/mb.c   ****             peMBFrameSendCur = eMBRTUSend;
 150:modbus/mb.c   ****             peMBFrameReceiveCur = eMBRTUReceive;
 151:modbus/mb.c   ****             pvMBFrameCloseCur = MB_PORT_HAS_CLOSE ? vMBPortClose : NULL;
 152:modbus/mb.c   ****             pxMBFrameCBByteReceived = xMBRTUReceiveFSM;
 153:modbus/mb.c   ****             pxMBFrameCBTransmitterEmpty = xMBRTUTransmitFSM;
 154:modbus/mb.c   ****             pxMBPortCBTimerExpired = xMBRTUTimerT35Expired;
 155:modbus/mb.c   **** 
 156:modbus/mb.c   ****             eStatus = eMBRTUInit( ucMBAddress, ucPort, ulBaudRate, eParity );
 157:modbus/mb.c   ****             break;
 158:modbus/mb.c   **** #endif
 159:modbus/mb.c   **** #if MB_ASCII_ENABLED > 0
 160:modbus/mb.c   ****         case MB_ASCII:
 161:modbus/mb.c   ****             pvMBFrameStartCur = eMBASCIIStart;
 162:modbus/mb.c   ****             pvMBFrameStopCur = eMBASCIIStop;
ARM GAS  /tmp/ccrMcL7D.s 			page 5


 163:modbus/mb.c   ****             peMBFrameSendCur = eMBASCIISend;
 164:modbus/mb.c   ****             peMBFrameReceiveCur = eMBASCIIReceive;
 165:modbus/mb.c   ****             pvMBFrameCloseCur = MB_PORT_HAS_CLOSE ? vMBPortClose : NULL;
 166:modbus/mb.c   ****             pxMBFrameCBByteReceived = xMBASCIIReceiveFSM;
 167:modbus/mb.c   ****             pxMBFrameCBTransmitterEmpty = xMBASCIITransmitFSM;
 168:modbus/mb.c   ****             pxMBPortCBTimerExpired = xMBASCIITimerT1SExpired;
 169:modbus/mb.c   **** 
 170:modbus/mb.c   ****             eStatus = eMBASCIIInit( ucMBAddress, ucPort, ulBaudRate, eParity );
 171:modbus/mb.c   ****             break;
 172:modbus/mb.c   **** #endif
 173:modbus/mb.c   ****         default:
 174:modbus/mb.c   ****             eStatus = MB_EINVAL;
  67              		.loc 1 174 21 is_stmt 0 view .LVU12
  68 001c 0224     		movs	r4, #2
  69 001e 25E0     		b	.L2
  70              	.L6:
 147:modbus/mb.c   ****             pvMBFrameStopCur = eMBRTUStop;
  71              		.loc 1 147 13 is_stmt 1 view .LVU13
 147:modbus/mb.c   ****             pvMBFrameStopCur = eMBRTUStop;
  72              		.loc 1 147 31 is_stmt 0 view .LVU14
  73 0020 1548     		ldr	r0, .L7+4
  74              	.LVL5:
 147:modbus/mb.c   ****             pvMBFrameStopCur = eMBRTUStop;
  75              		.loc 1 147 31 view .LVU15
  76 0022 164C     		ldr	r4, .L7+8
  77 0024 0460     		str	r4, [r0]
 148:modbus/mb.c   ****             peMBFrameSendCur = eMBRTUSend;
  78              		.loc 1 148 13 is_stmt 1 view .LVU16
 148:modbus/mb.c   ****             peMBFrameSendCur = eMBRTUSend;
  79              		.loc 1 148 30 is_stmt 0 view .LVU17
  80 0026 1648     		ldr	r0, .L7+12
  81 0028 164C     		ldr	r4, .L7+16
  82 002a 0460     		str	r4, [r0]
 149:modbus/mb.c   ****             peMBFrameReceiveCur = eMBRTUReceive;
  83              		.loc 1 149 13 is_stmt 1 view .LVU18
 149:modbus/mb.c   ****             peMBFrameReceiveCur = eMBRTUReceive;
  84              		.loc 1 149 30 is_stmt 0 view .LVU19
  85 002c 1648     		ldr	r0, .L7+20
  86 002e 174C     		ldr	r4, .L7+24
  87 0030 0460     		str	r4, [r0]
 150:modbus/mb.c   ****             pvMBFrameCloseCur = MB_PORT_HAS_CLOSE ? vMBPortClose : NULL;
  88              		.loc 1 150 13 is_stmt 1 view .LVU20
 150:modbus/mb.c   ****             pvMBFrameCloseCur = MB_PORT_HAS_CLOSE ? vMBPortClose : NULL;
  89              		.loc 1 150 33 is_stmt 0 view .LVU21
  90 0032 1748     		ldr	r0, .L7+28
  91 0034 174C     		ldr	r4, .L7+32
  92 0036 0460     		str	r4, [r0]
 151:modbus/mb.c   ****             pxMBFrameCBByteReceived = xMBRTUReceiveFSM;
  93              		.loc 1 151 13 is_stmt 1 view .LVU22
 151:modbus/mb.c   ****             pxMBFrameCBByteReceived = xMBRTUReceiveFSM;
  94              		.loc 1 151 31 is_stmt 0 view .LVU23
  95 0038 1748     		ldr	r0, .L7+36
  96 003a 0024     		movs	r4, #0
  97 003c 0460     		str	r4, [r0]
 152:modbus/mb.c   ****             pxMBFrameCBTransmitterEmpty = xMBRTUTransmitFSM;
  98              		.loc 1 152 13 is_stmt 1 view .LVU24
 152:modbus/mb.c   ****             pxMBFrameCBTransmitterEmpty = xMBRTUTransmitFSM;
ARM GAS  /tmp/ccrMcL7D.s 			page 6


  99              		.loc 1 152 37 is_stmt 0 view .LVU25
 100 003e 1748     		ldr	r0, .L7+40
 101 0040 174C     		ldr	r4, .L7+44
 102 0042 0460     		str	r4, [r0]
 153:modbus/mb.c   ****             pxMBPortCBTimerExpired = xMBRTUTimerT35Expired;
 103              		.loc 1 153 13 is_stmt 1 view .LVU26
 153:modbus/mb.c   ****             pxMBPortCBTimerExpired = xMBRTUTimerT35Expired;
 104              		.loc 1 153 41 is_stmt 0 view .LVU27
 105 0044 1748     		ldr	r0, .L7+48
 106 0046 184C     		ldr	r4, .L7+52
 107 0048 0460     		str	r4, [r0]
 154:modbus/mb.c   **** 
 108              		.loc 1 154 13 is_stmt 1 view .LVU28
 154:modbus/mb.c   **** 
 109              		.loc 1 154 36 is_stmt 0 view .LVU29
 110 004a 1848     		ldr	r0, .L7+56
 111 004c 184C     		ldr	r4, .L7+60
 112 004e 0460     		str	r4, [r0]
 156:modbus/mb.c   ****             break;
 113              		.loc 1 156 13 is_stmt 1 view .LVU30
 156:modbus/mb.c   ****             break;
 114              		.loc 1 156 23 is_stmt 0 view .LVU31
 115 0050 2800     		movs	r0, r5
 116 0052 FFF7FEFF 		bl	eMBRTUInit
 117              	.LVL6:
 156:modbus/mb.c   ****             break;
 118              		.loc 1 156 23 view .LVU32
 119 0056 041E     		subs	r4, r0, #0
 120              	.LVL7:
 157:modbus/mb.c   **** #endif
 121              		.loc 1 157 13 is_stmt 1 view .LVU33
 175:modbus/mb.c   ****         }
 176:modbus/mb.c   **** 
 177:modbus/mb.c   ****         if( eStatus == MB_ENOERR )
 122              		.loc 1 177 9 view .LVU34
 123              		.loc 1 177 11 is_stmt 0 view .LVU35
 124 0058 08D1     		bne	.L2
 178:modbus/mb.c   ****         {
 179:modbus/mb.c   ****             if( !xMBPortEventInit(  ) )
 125              		.loc 1 179 13 is_stmt 1 view .LVU36
 126              		.loc 1 179 18 is_stmt 0 view .LVU37
 127 005a FFF7FEFF 		bl	xMBPortEventInit
 128              	.LVL8:
 129              		.loc 1 179 15 view .LVU38
 130 005e 0028     		cmp	r0, #0
 131 0060 06D0     		beq	.L5
 180:modbus/mb.c   ****             {
 181:modbus/mb.c   ****                 /* port dependent event module initalization failed. */
 182:modbus/mb.c   ****                 eStatus = MB_EPORTERR;
 183:modbus/mb.c   ****             }
 184:modbus/mb.c   ****             else
 185:modbus/mb.c   ****             {
 186:modbus/mb.c   ****                 eMBCurrentMode = eMode;
 132              		.loc 1 186 17 is_stmt 1 view .LVU39
 187:modbus/mb.c   ****                 eMBState = STATE_DISABLED;
 133              		.loc 1 187 17 view .LVU40
 134              		.loc 1 187 26 is_stmt 0 view .LVU41
ARM GAS  /tmp/ccrMcL7D.s 			page 7


 135 0062 144B     		ldr	r3, .L7+64
 136 0064 0122     		movs	r2, #1
 137 0066 1A70     		strb	r2, [r3]
 138 0068 00E0     		b	.L2
 139              	.LVL9:
 140              	.L3:
 137:modbus/mb.c   ****     }
 141              		.loc 1 137 17 view .LVU42
 142 006a 0224     		movs	r4, #2
 143              	.LVL10:
 144              	.L2:
 188:modbus/mb.c   ****             }
 189:modbus/mb.c   ****         }
 190:modbus/mb.c   ****     }
 191:modbus/mb.c   ****     return eStatus;
 145              		.loc 1 191 5 is_stmt 1 view .LVU43
 192:modbus/mb.c   **** }
 146              		.loc 1 192 1 is_stmt 0 view .LVU44
 147 006c 2000     		movs	r0, r4
 148              		@ sp needed
 149              	.LVL11:
 150              		.loc 1 192 1 view .LVU45
 151 006e 70BD     		pop	{r4, r5, r6, pc}
 152              	.LVL12:
 153              	.L5:
 182:modbus/mb.c   ****             }
 154              		.loc 1 182 25 view .LVU46
 155 0070 0324     		movs	r4, #3
 156              	.LVL13:
 182:modbus/mb.c   ****             }
 157              		.loc 1 182 25 view .LVU47
 158 0072 FBE7     		b	.L2
 159              	.L8:
 160              		.align	2
 161              	.L7:
 162 0074 00000000 		.word	.LANCHOR0
 163 0078 00000000 		.word	.LANCHOR1
 164 007c 00000000 		.word	eMBRTUStart
 165 0080 00000000 		.word	.LANCHOR2
 166 0084 00000000 		.word	eMBRTUStop
 167 0088 00000000 		.word	.LANCHOR3
 168 008c 00000000 		.word	eMBRTUSend
 169 0090 00000000 		.word	.LANCHOR4
 170 0094 00000000 		.word	eMBRTUReceive
 171 0098 00000000 		.word	.LANCHOR5
 172 009c 00000000 		.word	pxMBFrameCBByteReceived
 173 00a0 00000000 		.word	xMBRTUReceiveFSM
 174 00a4 00000000 		.word	pxMBFrameCBTransmitterEmpty
 175 00a8 00000000 		.word	xMBRTUTransmitFSM
 176 00ac 00000000 		.word	pxMBPortCBTimerExpired
 177 00b0 00000000 		.word	xMBRTUTimerT35Expired
 178 00b4 00000000 		.word	.LANCHOR6
 179              		.cfi_endproc
 180              	.LFE37:
 182              		.section	.text.eMBRegCoilsCB,"ax",%progbits
 183              		.align	1
 184              		.global	eMBRegCoilsCB
ARM GAS  /tmp/ccrMcL7D.s 			page 8


 185              		.syntax unified
 186              		.code	16
 187              		.thumb_func
 188              		.fpu softvfp
 190              	eMBRegCoilsCB:
 191              	.LVL14:
 192              	.LFB38:
 193:modbus/mb.c   **** 
 194:modbus/mb.c   **** #if MB_TCP_ENABLED > 0
 195:modbus/mb.c   **** eMBErrorCode
 196:modbus/mb.c   **** eMBTCPInit( USHORT ucTCPPort )
 197:modbus/mb.c   **** {
 198:modbus/mb.c   ****     eMBErrorCode    eStatus = MB_ENOERR;
 199:modbus/mb.c   **** 
 200:modbus/mb.c   ****     if( ( eStatus = eMBTCPDoInit( ucTCPPort ) ) != MB_ENOERR )
 201:modbus/mb.c   ****     {
 202:modbus/mb.c   ****         eMBState = STATE_DISABLED;
 203:modbus/mb.c   ****     }
 204:modbus/mb.c   ****     else if( !xMBPortEventInit(  ) )
 205:modbus/mb.c   ****     {
 206:modbus/mb.c   ****         /* Port dependent event module initalization failed. */
 207:modbus/mb.c   ****         eStatus = MB_EPORTERR;
 208:modbus/mb.c   ****     }
 209:modbus/mb.c   ****     else
 210:modbus/mb.c   ****     {
 211:modbus/mb.c   ****         pvMBFrameStartCur = eMBTCPStart;
 212:modbus/mb.c   ****         pvMBFrameStopCur = eMBTCPStop;
 213:modbus/mb.c   ****         peMBFrameReceiveCur = eMBTCPReceive;
 214:modbus/mb.c   ****         peMBFrameSendCur = eMBTCPSend;
 215:modbus/mb.c   ****         pvMBFrameCloseCur = MB_PORT_HAS_CLOSE ? vMBTCPPortClose : NULL;
 216:modbus/mb.c   ****         ucMBAddress = MB_TCP_PSEUDO_ADDRESS;
 217:modbus/mb.c   ****         eMBCurrentMode = MB_TCP;
 218:modbus/mb.c   ****         eMBState = STATE_DISABLED;
 219:modbus/mb.c   ****     }
 220:modbus/mb.c   ****     return eStatus;
 221:modbus/mb.c   **** }
 222:modbus/mb.c   **** #endif
 223:modbus/mb.c   **** 
 224:modbus/mb.c   **** eMBErrorCode
 225:modbus/mb.c   **** eMBRegCoilsCB( UCHAR * pucRegBuffer, USHORT usAddress, USHORT usNCoils,
 226:modbus/mb.c   ****                eMBRegisterMode eMode )
 227:modbus/mb.c   **** {
 193              		.loc 1 227 1 is_stmt 1 view -0
 194              		.cfi_startproc
 195              		@ args = 0, pretend = 0, frame = 0
 196              		@ frame_needed = 0, uses_anonymous_args = 0
 197              		@ link register save eliminated.
 228:modbus/mb.c   ****     return MB_ENOREG;
 198              		.loc 1 228 5 view .LVU49
 229:modbus/mb.c   **** }
 199              		.loc 1 229 1 is_stmt 0 view .LVU50
 200 0000 0120     		movs	r0, #1
 201              	.LVL15:
 202              		.loc 1 229 1 view .LVU51
 203              		@ sp needed
 204 0002 7047     		bx	lr
 205              		.cfi_endproc
ARM GAS  /tmp/ccrMcL7D.s 			page 9


 206              	.LFE38:
 208              		.section	.text.eMBRegHoldingCB,"ax",%progbits
 209              		.align	1
 210              		.global	eMBRegHoldingCB
 211              		.syntax unified
 212              		.code	16
 213              		.thumb_func
 214              		.fpu softvfp
 216              	eMBRegHoldingCB:
 217              	.LVL16:
 218              	.LFB39:
 230:modbus/mb.c   **** 
 231:modbus/mb.c   **** eMBErrorCode
 232:modbus/mb.c   **** eMBRegHoldingCB( UCHAR * pucRegBuffer, USHORT usAddress, USHORT usNRegs,
 233:modbus/mb.c   ****                  eMBRegisterMode eMode )
 234:modbus/mb.c   **** {
 219              		.loc 1 234 1 is_stmt 1 view -0
 220              		.cfi_startproc
 221              		@ args = 0, pretend = 0, frame = 0
 222              		@ frame_needed = 0, uses_anonymous_args = 0
 223              		@ link register save eliminated.
 235:modbus/mb.c   ****     return MB_ENOREG;
 224              		.loc 1 235 5 view .LVU53
 236:modbus/mb.c   **** }
 225              		.loc 1 236 1 is_stmt 0 view .LVU54
 226 0000 0120     		movs	r0, #1
 227              	.LVL17:
 228              		.loc 1 236 1 view .LVU55
 229              		@ sp needed
 230 0002 7047     		bx	lr
 231              		.cfi_endproc
 232              	.LFE39:
 234              		.section	.text.eMBRegDiscreteCB,"ax",%progbits
 235              		.align	1
 236              		.global	eMBRegDiscreteCB
 237              		.syntax unified
 238              		.code	16
 239              		.thumb_func
 240              		.fpu softvfp
 242              	eMBRegDiscreteCB:
 243              	.LVL18:
 244              	.LFB40:
 237:modbus/mb.c   **** 
 238:modbus/mb.c   **** eMBErrorCode
 239:modbus/mb.c   **** eMBRegDiscreteCB( UCHAR * pucRegBuffer, USHORT usAddress,
 240:modbus/mb.c   ****                                   USHORT usNDiscrete )
 241:modbus/mb.c   ****                                   {
 245              		.loc 1 241 35 is_stmt 1 view -0
 246              		.cfi_startproc
 247              		@ args = 0, pretend = 0, frame = 0
 248              		@ frame_needed = 0, uses_anonymous_args = 0
 249              		@ link register save eliminated.
 242:modbus/mb.c   ****                                       return MB_ENOREG;
 250              		.loc 1 242 39 view .LVU57
 243:modbus/mb.c   ****                                   };
 251              		.loc 1 243 35 is_stmt 0 view .LVU58
 252 0000 0120     		movs	r0, #1
ARM GAS  /tmp/ccrMcL7D.s 			page 10


 253              	.LVL19:
 254              		.loc 1 243 35 view .LVU59
 255              		@ sp needed
 256 0002 7047     		bx	lr
 257              		.cfi_endproc
 258              	.LFE40:
 260              		.section	.text.eMBRegInputCB,"ax",%progbits
 261              		.align	1
 262              		.global	eMBRegInputCB
 263              		.syntax unified
 264              		.code	16
 265              		.thumb_func
 266              		.fpu softvfp
 268              	eMBRegInputCB:
 269              	.LVL20:
 270              	.LFB41:
 244:modbus/mb.c   **** eMBErrorCode
 245:modbus/mb.c   **** eMBRegInputCB( UCHAR * pucRegBuffer, USHORT usAddress, USHORT usNRegs )
 246:modbus/mb.c   **** {
 271              		.loc 1 246 1 is_stmt 1 view -0
 272              		.cfi_startproc
 273              		@ args = 0, pretend = 0, frame = 0
 274              		@ frame_needed = 0, uses_anonymous_args = 0
 275              		@ link register save eliminated.
 247:modbus/mb.c   ****     // eMBErrorCode    eStatus = MB_ENOERR;
 248:modbus/mb.c   ****     // int             iRegIndex;
 249:modbus/mb.c   **** 
 250:modbus/mb.c   ****     // if( ( usAddress >= REG_INPUT_START )
 251:modbus/mb.c   ****     //     && ( usAddress + usNRegs <= REG_INPUT_START + REG_INPUT_NREGS ) )
 252:modbus/mb.c   ****     // {
 253:modbus/mb.c   ****     //     iRegIndex = ( int )( usAddress - usRegInputStart );
 254:modbus/mb.c   ****     //     while( usNRegs > 0 )
 255:modbus/mb.c   ****     //     {
 256:modbus/mb.c   ****     //         *pucRegBuffer++ =
 257:modbus/mb.c   ****     //             ( unsigned char )( usRegInputBuf[iRegIndex] >> 8 );
 258:modbus/mb.c   ****     //         *pucRegBuffer++ =
 259:modbus/mb.c   ****     //             ( unsigned char )( usRegInputBuf[iRegIndex] & 0xFF );
 260:modbus/mb.c   ****     //         iRegIndex++;
 261:modbus/mb.c   ****     //         usNRegs--;
 262:modbus/mb.c   ****     //     }
 263:modbus/mb.c   ****     // }
 264:modbus/mb.c   ****     // else
 265:modbus/mb.c   ****     // {
 266:modbus/mb.c   ****     //     eStatus = MB_ENOREG;
 267:modbus/mb.c   ****     // }
 268:modbus/mb.c   **** 
 269:modbus/mb.c   ****     // return eStatus;
 270:modbus/mb.c   ****     return MB_ENOREG;
 276              		.loc 1 270 5 view .LVU61
 271:modbus/mb.c   **** }
 277              		.loc 1 271 1 is_stmt 0 view .LVU62
 278 0000 0120     		movs	r0, #1
 279              	.LVL21:
 280              		.loc 1 271 1 view .LVU63
 281              		@ sp needed
 282 0002 7047     		bx	lr
 283              		.cfi_endproc
ARM GAS  /tmp/ccrMcL7D.s 			page 11


 284              	.LFE41:
 286              		.section	.text.eMBRegisterCB,"ax",%progbits
 287              		.align	1
 288              		.global	eMBRegisterCB
 289              		.syntax unified
 290              		.code	16
 291              		.thumb_func
 292              		.fpu softvfp
 294              	eMBRegisterCB:
 295              	.LVL22:
 296              	.LFB42:
 272:modbus/mb.c   **** 
 273:modbus/mb.c   **** eMBErrorCode
 274:modbus/mb.c   **** eMBRegisterCB( UCHAR ucFunctionCode, pxMBFunctionHandler pxHandler )
 275:modbus/mb.c   **** {
 297              		.loc 1 275 1 is_stmt 1 view -0
 298              		.cfi_startproc
 299              		@ args = 0, pretend = 0, frame = 0
 300              		@ frame_needed = 0, uses_anonymous_args = 0
 301              		.loc 1 275 1 is_stmt 0 view .LVU65
 302 0000 10B5     		push	{r4, lr}
 303              	.LCFI1:
 304              		.cfi_def_cfa_offset 8
 305              		.cfi_offset 4, -8
 306              		.cfi_offset 14, -4
 276:modbus/mb.c   ****     int             i;
 307              		.loc 1 276 5 is_stmt 1 view .LVU66
 277:modbus/mb.c   ****     eMBErrorCode    eStatus;
 308              		.loc 1 277 5 view .LVU67
 278:modbus/mb.c   **** 
 279:modbus/mb.c   ****     if( ( 0 < ucFunctionCode ) && ( ucFunctionCode <= 127 ) )
 309              		.loc 1 279 5 view .LVU68
 310              		.loc 1 279 32 is_stmt 0 view .LVU69
 311 0002 43B2     		sxtb	r3, r0
 312              		.loc 1 279 7 view .LVU70
 313 0004 002B     		cmp	r3, #0
 314 0006 2FDD     		ble	.L24
 280:modbus/mb.c   ****     {
 281:modbus/mb.c   ****         ENTER_CRITICAL_SECTION(  );
 315              		.loc 1 281 9 is_stmt 1 view .LVU71
 316              	.LBB6:
 317              	.LBI6:
 318              		.file 2 "Drivers/CMSIS/Include/cmsis_gcc.h"
   1:Drivers/CMSIS/Include/cmsis_gcc.h **** /**************************************************************************//**
   2:Drivers/CMSIS/Include/cmsis_gcc.h ****  * @file     cmsis_gcc.h
   3:Drivers/CMSIS/Include/cmsis_gcc.h ****  * @brief    CMSIS Cortex-M Core Function/Instruction Header File
   4:Drivers/CMSIS/Include/cmsis_gcc.h ****  * @version  V4.30
   5:Drivers/CMSIS/Include/cmsis_gcc.h ****  * @date     20. October 2015
   6:Drivers/CMSIS/Include/cmsis_gcc.h ****  ******************************************************************************/
   7:Drivers/CMSIS/Include/cmsis_gcc.h **** /* Copyright (c) 2009 - 2015 ARM LIMITED
   8:Drivers/CMSIS/Include/cmsis_gcc.h **** 
   9:Drivers/CMSIS/Include/cmsis_gcc.h ****    All rights reserved.
  10:Drivers/CMSIS/Include/cmsis_gcc.h ****    Redistribution and use in source and binary forms, with or without
  11:Drivers/CMSIS/Include/cmsis_gcc.h ****    modification, are permitted provided that the following conditions are met:
  12:Drivers/CMSIS/Include/cmsis_gcc.h ****    - Redistributions of source code must retain the above copyright
  13:Drivers/CMSIS/Include/cmsis_gcc.h ****      notice, this list of conditions and the following disclaimer.
  14:Drivers/CMSIS/Include/cmsis_gcc.h ****    - Redistributions in binary form must reproduce the above copyright
ARM GAS  /tmp/ccrMcL7D.s 			page 12


  15:Drivers/CMSIS/Include/cmsis_gcc.h ****      notice, this list of conditions and the following disclaimer in the
  16:Drivers/CMSIS/Include/cmsis_gcc.h ****      documentation and/or other materials provided with the distribution.
  17:Drivers/CMSIS/Include/cmsis_gcc.h ****    - Neither the name of ARM nor the names of its contributors may be used
  18:Drivers/CMSIS/Include/cmsis_gcc.h ****      to endorse or promote products derived from this software without
  19:Drivers/CMSIS/Include/cmsis_gcc.h ****      specific prior written permission.
  20:Drivers/CMSIS/Include/cmsis_gcc.h ****    *
  21:Drivers/CMSIS/Include/cmsis_gcc.h ****    THIS SOFTWARE IS PROVIDED BY THE COPYRIGHT HOLDERS AND CONTRIBUTORS "AS IS"
  22:Drivers/CMSIS/Include/cmsis_gcc.h ****    AND ANY EXPRESS OR IMPLIED WARRANTIES, INCLUDING, BUT NOT LIMITED TO, THE
  23:Drivers/CMSIS/Include/cmsis_gcc.h ****    IMPLIED WARRANTIES OF MERCHANTABILITY AND FITNESS FOR A PARTICULAR PURPOSE
  24:Drivers/CMSIS/Include/cmsis_gcc.h ****    ARE DISCLAIMED. IN NO EVENT SHALL COPYRIGHT HOLDERS AND CONTRIBUTORS BE
  25:Drivers/CMSIS/Include/cmsis_gcc.h ****    LIABLE FOR ANY DIRECT, INDIRECT, INCIDENTAL, SPECIAL, EXEMPLARY, OR
  26:Drivers/CMSIS/Include/cmsis_gcc.h ****    CONSEQUENTIAL DAMAGES (INCLUDING, BUT NOT LIMITED TO, PROCUREMENT OF
  27:Drivers/CMSIS/Include/cmsis_gcc.h ****    SUBSTITUTE GOODS OR SERVICES; LOSS OF USE, DATA, OR PROFITS; OR BUSINESS
  28:Drivers/CMSIS/Include/cmsis_gcc.h ****    INTERRUPTION) HOWEVER CAUSED AND ON ANY THEORY OF LIABILITY, WHETHER IN
  29:Drivers/CMSIS/Include/cmsis_gcc.h ****    CONTRACT, STRICT LIABILITY, OR TORT (INCLUDING NEGLIGENCE OR OTHERWISE)
  30:Drivers/CMSIS/Include/cmsis_gcc.h ****    ARISING IN ANY WAY OUT OF THE USE OF THIS SOFTWARE, EVEN IF ADVISED OF THE
  31:Drivers/CMSIS/Include/cmsis_gcc.h ****    POSSIBILITY OF SUCH DAMAGE.
  32:Drivers/CMSIS/Include/cmsis_gcc.h ****    ---------------------------------------------------------------------------*/
  33:Drivers/CMSIS/Include/cmsis_gcc.h **** 
  34:Drivers/CMSIS/Include/cmsis_gcc.h **** 
  35:Drivers/CMSIS/Include/cmsis_gcc.h **** #ifndef __CMSIS_GCC_H
  36:Drivers/CMSIS/Include/cmsis_gcc.h **** #define __CMSIS_GCC_H
  37:Drivers/CMSIS/Include/cmsis_gcc.h **** 
  38:Drivers/CMSIS/Include/cmsis_gcc.h **** /* ignore some GCC warnings */
  39:Drivers/CMSIS/Include/cmsis_gcc.h **** #if defined ( __GNUC__ )
  40:Drivers/CMSIS/Include/cmsis_gcc.h **** #pragma GCC diagnostic push
  41:Drivers/CMSIS/Include/cmsis_gcc.h **** #pragma GCC diagnostic ignored "-Wsign-conversion"
  42:Drivers/CMSIS/Include/cmsis_gcc.h **** #pragma GCC diagnostic ignored "-Wconversion"
  43:Drivers/CMSIS/Include/cmsis_gcc.h **** #pragma GCC diagnostic ignored "-Wunused-parameter"
  44:Drivers/CMSIS/Include/cmsis_gcc.h **** #endif
  45:Drivers/CMSIS/Include/cmsis_gcc.h **** 
  46:Drivers/CMSIS/Include/cmsis_gcc.h **** 
  47:Drivers/CMSIS/Include/cmsis_gcc.h **** /* ###########################  Core Function Access  ########################### */
  48:Drivers/CMSIS/Include/cmsis_gcc.h **** /** \ingroup  CMSIS_Core_FunctionInterface
  49:Drivers/CMSIS/Include/cmsis_gcc.h ****     \defgroup CMSIS_Core_RegAccFunctions CMSIS Core Register Access Functions
  50:Drivers/CMSIS/Include/cmsis_gcc.h ****   @{
  51:Drivers/CMSIS/Include/cmsis_gcc.h ****  */
  52:Drivers/CMSIS/Include/cmsis_gcc.h **** 
  53:Drivers/CMSIS/Include/cmsis_gcc.h **** /**
  54:Drivers/CMSIS/Include/cmsis_gcc.h ****   \brief   Enable IRQ Interrupts
  55:Drivers/CMSIS/Include/cmsis_gcc.h ****   \details Enables IRQ interrupts by clearing the I-bit in the CPSR.
  56:Drivers/CMSIS/Include/cmsis_gcc.h ****            Can only be executed in Privileged modes.
  57:Drivers/CMSIS/Include/cmsis_gcc.h ****  */
  58:Drivers/CMSIS/Include/cmsis_gcc.h **** __attribute__( ( always_inline ) ) __STATIC_INLINE void __enable_irq(void)
  59:Drivers/CMSIS/Include/cmsis_gcc.h **** {
  60:Drivers/CMSIS/Include/cmsis_gcc.h ****   __ASM volatile ("cpsie i" : : : "memory");
  61:Drivers/CMSIS/Include/cmsis_gcc.h **** }
  62:Drivers/CMSIS/Include/cmsis_gcc.h **** 
  63:Drivers/CMSIS/Include/cmsis_gcc.h **** 
  64:Drivers/CMSIS/Include/cmsis_gcc.h **** /**
  65:Drivers/CMSIS/Include/cmsis_gcc.h ****   \brief   Disable IRQ Interrupts
  66:Drivers/CMSIS/Include/cmsis_gcc.h ****   \details Disables IRQ interrupts by setting the I-bit in the CPSR.
  67:Drivers/CMSIS/Include/cmsis_gcc.h ****   Can only be executed in Privileged modes.
  68:Drivers/CMSIS/Include/cmsis_gcc.h ****  */
  69:Drivers/CMSIS/Include/cmsis_gcc.h **** __attribute__( ( always_inline ) ) __STATIC_INLINE void __disable_irq(void)
 319              		.loc 2 69 57 view .LVU72
 320              	.LBB7:
ARM GAS  /tmp/ccrMcL7D.s 			page 13


  70:Drivers/CMSIS/Include/cmsis_gcc.h **** {
  71:Drivers/CMSIS/Include/cmsis_gcc.h ****   __ASM volatile ("cpsid i" : : : "memory");
 321              		.loc 2 71 3 view .LVU73
 322              		.syntax divided
 323              	@ 71 "Drivers/CMSIS/Include/cmsis_gcc.h" 1
 324 0008 72B6     		cpsid i
 325              	@ 0 "" 2
 326              		.thumb
 327              		.syntax unified
 328              	.LBE7:
 329              	.LBE6:
 282:modbus/mb.c   ****         if( pxHandler != NULL )
 330              		.loc 1 282 9 view .LVU74
 331              		.loc 1 282 11 is_stmt 0 view .LVU75
 332 000a 0029     		cmp	r1, #0
 333 000c 0CD0     		beq	.L27
 283:modbus/mb.c   ****         {
 284:modbus/mb.c   ****             for( i = 0; i < MB_FUNC_HANDLERS_MAX; i++ )
 334              		.loc 1 284 20 view .LVU76
 335 000e 0023     		movs	r3, #0
 336              	.L15:
 337              	.LVL23:
 338              		.loc 1 284 13 discriminator 1 view .LVU77
 339 0010 0F2B     		cmp	r3, #15
 340 0012 18DC     		bgt	.L19
 285:modbus/mb.c   ****             {
 286:modbus/mb.c   ****                 if( ( xFuncHandlers[i].pxHandler == NULL ) ||
 341              		.loc 1 286 17 is_stmt 1 view .LVU78
 342              		.loc 1 286 39 is_stmt 0 view .LVU79
 343 0014 DC00     		lsls	r4, r3, #3
 344 0016 154A     		ldr	r2, .L30
 345 0018 1219     		adds	r2, r2, r4
 346 001a 5268     		ldr	r2, [r2, #4]
 347              		.loc 1 286 19 view .LVU80
 348 001c 002A     		cmp	r2, #0
 349 001e 0DD0     		beq	.L17
 350              		.loc 1 286 60 discriminator 1 view .LVU81
 351 0020 8A42     		cmp	r2, r1
 352 0022 0BD0     		beq	.L17
 284:modbus/mb.c   ****             {
 353              		.loc 1 284 52 discriminator 2 view .LVU82
 354 0024 0133     		adds	r3, r3, #1
 355              	.LVL24:
 284:modbus/mb.c   ****             {
 356              		.loc 1 284 52 discriminator 2 view .LVU83
 357 0026 F3E7     		b	.L15
 358              	.LVL25:
 359              	.L27:
 287:modbus/mb.c   ****                     ( xFuncHandlers[i].pxHandler == pxHandler ) )
 288:modbus/mb.c   ****                 {
 289:modbus/mb.c   ****                     xFuncHandlers[i].ucFunctionCode = ucFunctionCode;
 290:modbus/mb.c   ****                     xFuncHandlers[i].pxHandler = pxHandler;
 291:modbus/mb.c   ****                     break;
 292:modbus/mb.c   ****                 }
 293:modbus/mb.c   ****             }
 294:modbus/mb.c   ****             eStatus = ( i != MB_FUNC_HANDLERS_MAX ) ? MB_ENOERR : MB_ENORES;
 295:modbus/mb.c   ****         }
ARM GAS  /tmp/ccrMcL7D.s 			page 14


 296:modbus/mb.c   ****         else
 297:modbus/mb.c   ****         {
 298:modbus/mb.c   ****             for( i = 0; i < MB_FUNC_HANDLERS_MAX; i++ )
 360              		.loc 1 298 20 view .LVU84
 361 0028 0023     		movs	r3, #0
 362              	.LVL26:
 363              	.L16:
 364              		.loc 1 298 13 discriminator 1 view .LVU85
 365 002a 0F2B     		cmp	r3, #15
 366 002c 18DC     		bgt	.L28
 299:modbus/mb.c   ****             {
 300:modbus/mb.c   ****                 if( xFuncHandlers[i].ucFunctionCode == ucFunctionCode )
 367              		.loc 1 300 17 is_stmt 1 view .LVU86
 368              		.loc 1 300 37 is_stmt 0 view .LVU87
 369 002e DA00     		lsls	r2, r3, #3
 370 0030 0E49     		ldr	r1, .L30
 371 0032 525C     		ldrb	r2, [r2, r1]
 372              		.loc 1 300 19 view .LVU88
 373 0034 8242     		cmp	r2, r0
 374 0036 0BD0     		beq	.L29
 298:modbus/mb.c   ****             {
 375              		.loc 1 298 52 discriminator 2 view .LVU89
 376 0038 0133     		adds	r3, r3, #1
 377              	.LVL27:
 298:modbus/mb.c   ****             {
 378              		.loc 1 298 52 discriminator 2 view .LVU90
 379 003a F6E7     		b	.L16
 380              	.LVL28:
 381              	.L17:
 289:modbus/mb.c   ****                     xFuncHandlers[i].pxHandler = pxHandler;
 382              		.loc 1 289 21 is_stmt 1 view .LVU91
 289:modbus/mb.c   ****                     xFuncHandlers[i].pxHandler = pxHandler;
 383              		.loc 1 289 53 is_stmt 0 view .LVU92
 384 003c 0B4A     		ldr	r2, .L30
 385 003e DC00     		lsls	r4, r3, #3
 386 0040 A054     		strb	r0, [r4, r2]
 290:modbus/mb.c   ****                     break;
 387              		.loc 1 290 21 is_stmt 1 view .LVU93
 290:modbus/mb.c   ****                     break;
 388              		.loc 1 290 48 is_stmt 0 view .LVU94
 389 0042 1219     		adds	r2, r2, r4
 390 0044 5160     		str	r1, [r2, #4]
 291:modbus/mb.c   ****                 }
 391              		.loc 1 291 21 is_stmt 1 view .LVU95
 392              	.L19:
 294:modbus/mb.c   ****         }
 393              		.loc 1 294 13 view .LVU96
 294:modbus/mb.c   ****         }
 394              		.loc 1 294 65 is_stmt 0 view .LVU97
 395 0046 102B     		cmp	r3, #16
 396 0048 0CD0     		beq	.L26
 397 004a 0020     		movs	r0, #0
 398              	.LVL29:
 399              	.L21:
 301:modbus/mb.c   ****                 {
 302:modbus/mb.c   ****                     xFuncHandlers[i].ucFunctionCode = 0;
 303:modbus/mb.c   ****                     xFuncHandlers[i].pxHandler = NULL;
ARM GAS  /tmp/ccrMcL7D.s 			page 15


 304:modbus/mb.c   ****                     break;
 305:modbus/mb.c   ****                 }
 306:modbus/mb.c   ****             }
 307:modbus/mb.c   ****             /* Remove can't fail. */
 308:modbus/mb.c   ****             eStatus = MB_ENOERR;
 309:modbus/mb.c   ****         }
 310:modbus/mb.c   ****         EXIT_CRITICAL_SECTION(  );
 400              		.loc 1 310 9 is_stmt 1 view .LVU98
 401              	.LBB8:
 402              	.LBI8:
  58:Drivers/CMSIS/Include/cmsis_gcc.h **** {
 403              		.loc 2 58 57 view .LVU99
 404              	.LBB9:
  60:Drivers/CMSIS/Include/cmsis_gcc.h **** }
 405              		.loc 2 60 3 view .LVU100
 406              		.syntax divided
 407              	@ 60 "Drivers/CMSIS/Include/cmsis_gcc.h" 1
 408 004c 62B6     		cpsie i
 409              	@ 0 "" 2
 410              	.LVL30:
 411              		.thumb
 412              		.syntax unified
 413              	.L14:
  60:Drivers/CMSIS/Include/cmsis_gcc.h **** }
 414              		.loc 2 60 3 is_stmt 0 view .LVU101
 415              	.LBE9:
 416              	.LBE8:
 311:modbus/mb.c   ****     }
 312:modbus/mb.c   ****     else
 313:modbus/mb.c   ****     {
 314:modbus/mb.c   ****         eStatus = MB_EINVAL;
 315:modbus/mb.c   ****     }
 316:modbus/mb.c   ****     return eStatus;
 417              		.loc 1 316 5 is_stmt 1 view .LVU102
 317:modbus/mb.c   **** }
 418              		.loc 1 317 1 is_stmt 0 view .LVU103
 419              		@ sp needed
 420 004e 10BD     		pop	{r4, pc}
 421              	.LVL31:
 422              	.L29:
 302:modbus/mb.c   ****                     xFuncHandlers[i].pxHandler = NULL;
 423              		.loc 1 302 21 is_stmt 1 view .LVU104
 302:modbus/mb.c   ****                     xFuncHandlers[i].pxHandler = NULL;
 424              		.loc 1 302 53 is_stmt 0 view .LVU105
 425 0050 0A00     		movs	r2, r1
 426 0052 DB00     		lsls	r3, r3, #3
 427              	.LVL32:
 302:modbus/mb.c   ****                     xFuncHandlers[i].pxHandler = NULL;
 428              		.loc 1 302 53 view .LVU106
 429 0054 0021     		movs	r1, #0
 430 0056 9954     		strb	r1, [r3, r2]
 303:modbus/mb.c   ****                     break;
 431              		.loc 1 303 21 is_stmt 1 view .LVU107
 303:modbus/mb.c   ****                     break;
 432              		.loc 1 303 48 is_stmt 0 view .LVU108
 433 0058 D318     		adds	r3, r2, r3
 434 005a 5960     		str	r1, [r3, #4]
ARM GAS  /tmp/ccrMcL7D.s 			page 16


 304:modbus/mb.c   ****                 }
 435              		.loc 1 304 21 is_stmt 1 view .LVU109
 308:modbus/mb.c   ****         }
 436              		.loc 1 308 21 is_stmt 0 view .LVU110
 437 005c 0020     		movs	r0, #0
 438              	.LVL33:
 304:modbus/mb.c   ****                 }
 439              		.loc 1 304 21 view .LVU111
 440 005e F5E7     		b	.L21
 441              	.LVL34:
 442              	.L28:
 308:modbus/mb.c   ****         }
 443              		.loc 1 308 21 view .LVU112
 444 0060 0020     		movs	r0, #0
 445              	.LVL35:
 308:modbus/mb.c   ****         }
 446              		.loc 1 308 21 view .LVU113
 447 0062 F3E7     		b	.L21
 448              	.LVL36:
 449              	.L26:
 294:modbus/mb.c   ****         }
 450              		.loc 1 294 65 view .LVU114
 451 0064 0420     		movs	r0, #4
 452              	.LVL37:
 294:modbus/mb.c   ****         }
 453              		.loc 1 294 65 view .LVU115
 454 0066 F1E7     		b	.L21
 455              	.LVL38:
 456              	.L24:
 314:modbus/mb.c   ****     }
 457              		.loc 1 314 17 view .LVU116
 458 0068 0220     		movs	r0, #2
 459              	.LVL39:
 314:modbus/mb.c   ****     }
 460              		.loc 1 314 17 view .LVU117
 461 006a F0E7     		b	.L14
 462              	.L31:
 463              		.align	2
 464              	.L30:
 465 006c 00000000 		.word	xFuncHandlers
 466              		.cfi_endproc
 467              	.LFE42:
 469              		.section	.text.eMBClose,"ax",%progbits
 470              		.align	1
 471              		.global	eMBClose
 472              		.syntax unified
 473              		.code	16
 474              		.thumb_func
 475              		.fpu softvfp
 477              	eMBClose:
 478              	.LFB43:
 318:modbus/mb.c   **** 
 319:modbus/mb.c   **** 
 320:modbus/mb.c   **** eMBErrorCode
 321:modbus/mb.c   **** eMBClose( void )
 322:modbus/mb.c   **** {
 479              		.loc 1 322 1 is_stmt 1 view -0
ARM GAS  /tmp/ccrMcL7D.s 			page 17


 480              		.cfi_startproc
 481              		@ args = 0, pretend = 0, frame = 0
 482              		@ frame_needed = 0, uses_anonymous_args = 0
 483 0000 10B5     		push	{r4, lr}
 484              	.LCFI2:
 485              		.cfi_def_cfa_offset 8
 486              		.cfi_offset 4, -8
 487              		.cfi_offset 14, -4
 323:modbus/mb.c   ****     eMBErrorCode    eStatus = MB_ENOERR;
 488              		.loc 1 323 5 view .LVU119
 489              	.LVL40:
 324:modbus/mb.c   **** 
 325:modbus/mb.c   ****     if( eMBState == STATE_DISABLED )
 490              		.loc 1 325 5 view .LVU120
 491              		.loc 1 325 18 is_stmt 0 view .LVU121
 492 0002 074B     		ldr	r3, .L37
 493 0004 1B78     		ldrb	r3, [r3]
 494              		.loc 1 325 7 view .LVU122
 495 0006 012B     		cmp	r3, #1
 496 0008 01D0     		beq	.L36
 326:modbus/mb.c   ****     {
 327:modbus/mb.c   ****         if( pvMBFrameCloseCur != NULL )
 328:modbus/mb.c   ****         {
 329:modbus/mb.c   ****             pvMBFrameCloseCur(  );
 330:modbus/mb.c   ****         }
 331:modbus/mb.c   ****     }
 332:modbus/mb.c   ****     else
 333:modbus/mb.c   ****     {
 334:modbus/mb.c   ****         eStatus = MB_EILLSTATE;
 497              		.loc 1 334 17 view .LVU123
 498 000a 0620     		movs	r0, #6
 499              	.L33:
 500              	.LVL41:
 335:modbus/mb.c   ****     }
 336:modbus/mb.c   ****     return eStatus;
 501              		.loc 1 336 5 is_stmt 1 view .LVU124
 337:modbus/mb.c   **** }
 502              		.loc 1 337 1 is_stmt 0 view .LVU125
 503              		@ sp needed
 504 000c 10BD     		pop	{r4, pc}
 505              	.LVL42:
 506              	.L36:
 327:modbus/mb.c   ****         {
 507              		.loc 1 327 9 is_stmt 1 view .LVU126
 327:modbus/mb.c   ****         {
 508              		.loc 1 327 31 is_stmt 0 view .LVU127
 509 000e 054B     		ldr	r3, .L37+4
 510 0010 1B68     		ldr	r3, [r3]
 327:modbus/mb.c   ****         {
 511              		.loc 1 327 11 view .LVU128
 512 0012 002B     		cmp	r3, #0
 513 0014 02D0     		beq	.L35
 329:modbus/mb.c   ****         }
 514              		.loc 1 329 13 is_stmt 1 view .LVU129
 515 0016 9847     		blx	r3
 516              	.LVL43:
 323:modbus/mb.c   **** 
ARM GAS  /tmp/ccrMcL7D.s 			page 18


 517              		.loc 1 323 21 is_stmt 0 view .LVU130
 518 0018 0020     		movs	r0, #0
 519 001a F7E7     		b	.L33
 520              	.L35:
 521 001c 0020     		movs	r0, #0
 522 001e F5E7     		b	.L33
 523              	.L38:
 524              		.align	2
 525              	.L37:
 526 0020 00000000 		.word	.LANCHOR6
 527 0024 00000000 		.word	.LANCHOR5
 528              		.cfi_endproc
 529              	.LFE43:
 531              		.section	.text.eMBEnable,"ax",%progbits
 532              		.align	1
 533              		.global	eMBEnable
 534              		.syntax unified
 535              		.code	16
 536              		.thumb_func
 537              		.fpu softvfp
 539              	eMBEnable:
 540              	.LFB44:
 338:modbus/mb.c   **** 
 339:modbus/mb.c   **** eMBErrorCode
 340:modbus/mb.c   **** eMBEnable( void )
 341:modbus/mb.c   **** {
 541              		.loc 1 341 1 is_stmt 1 view -0
 542              		.cfi_startproc
 543              		@ args = 0, pretend = 0, frame = 0
 544              		@ frame_needed = 0, uses_anonymous_args = 0
 545 0000 10B5     		push	{r4, lr}
 546              	.LCFI3:
 547              		.cfi_def_cfa_offset 8
 548              		.cfi_offset 4, -8
 549              		.cfi_offset 14, -4
 342:modbus/mb.c   ****     eMBErrorCode    eStatus = MB_ENOERR;
 550              		.loc 1 342 5 view .LVU132
 551              	.LVL44:
 343:modbus/mb.c   **** 
 344:modbus/mb.c   ****     if( eMBState == STATE_DISABLED )
 552              		.loc 1 344 5 view .LVU133
 553              		.loc 1 344 18 is_stmt 0 view .LVU134
 554 0002 074B     		ldr	r3, .L43
 555 0004 1B78     		ldrb	r3, [r3]
 556              		.loc 1 344 7 view .LVU135
 557 0006 012B     		cmp	r3, #1
 558 0008 01D0     		beq	.L42
 345:modbus/mb.c   ****     {
 346:modbus/mb.c   ****         /* Activate the protocol stack. */
 347:modbus/mb.c   ****         pvMBFrameStartCur(  );
 348:modbus/mb.c   ****         eMBState = STATE_ENABLED;
 349:modbus/mb.c   ****     }
 350:modbus/mb.c   ****     else
 351:modbus/mb.c   ****     {
 352:modbus/mb.c   ****         eStatus = MB_EILLSTATE;
 559              		.loc 1 352 17 view .LVU136
 560 000a 0620     		movs	r0, #6
ARM GAS  /tmp/ccrMcL7D.s 			page 19


 561              	.L40:
 562              	.LVL45:
 353:modbus/mb.c   ****     }
 354:modbus/mb.c   ****     return eStatus;
 563              		.loc 1 354 5 is_stmt 1 view .LVU137
 355:modbus/mb.c   **** }
 564              		.loc 1 355 1 is_stmt 0 view .LVU138
 565              		@ sp needed
 566 000c 10BD     		pop	{r4, pc}
 567              	.LVL46:
 568              	.L42:
 347:modbus/mb.c   ****         eMBState = STATE_ENABLED;
 569              		.loc 1 347 9 is_stmt 1 view .LVU139
 570 000e 054B     		ldr	r3, .L43+4
 571 0010 1B68     		ldr	r3, [r3]
 572 0012 9847     		blx	r3
 573              	.LVL47:
 348:modbus/mb.c   ****     }
 574              		.loc 1 348 9 view .LVU140
 348:modbus/mb.c   ****     }
 575              		.loc 1 348 18 is_stmt 0 view .LVU141
 576 0014 024B     		ldr	r3, .L43
 577 0016 0022     		movs	r2, #0
 578 0018 1A70     		strb	r2, [r3]
 342:modbus/mb.c   **** 
 579              		.loc 1 342 21 view .LVU142
 580 001a 0020     		movs	r0, #0
 581 001c F6E7     		b	.L40
 582              	.L44:
 583 001e C046     		.align	2
 584              	.L43:
 585 0020 00000000 		.word	.LANCHOR6
 586 0024 00000000 		.word	.LANCHOR1
 587              		.cfi_endproc
 588              	.LFE44:
 590              		.section	.text.eMBDisable,"ax",%progbits
 591              		.align	1
 592              		.global	eMBDisable
 593              		.syntax unified
 594              		.code	16
 595              		.thumb_func
 596              		.fpu softvfp
 598              	eMBDisable:
 599              	.LFB45:
 356:modbus/mb.c   **** 
 357:modbus/mb.c   **** eMBErrorCode
 358:modbus/mb.c   **** eMBDisable( void )
 359:modbus/mb.c   **** {
 600              		.loc 1 359 1 is_stmt 1 view -0
 601              		.cfi_startproc
 602              		@ args = 0, pretend = 0, frame = 0
 603              		@ frame_needed = 0, uses_anonymous_args = 0
 604 0000 10B5     		push	{r4, lr}
 605              	.LCFI4:
 606              		.cfi_def_cfa_offset 8
 607              		.cfi_offset 4, -8
 608              		.cfi_offset 14, -4
ARM GAS  /tmp/ccrMcL7D.s 			page 20


 360:modbus/mb.c   ****     eMBErrorCode    eStatus;
 609              		.loc 1 360 5 view .LVU144
 361:modbus/mb.c   **** 
 362:modbus/mb.c   ****     if( eMBState == STATE_ENABLED )
 610              		.loc 1 362 5 view .LVU145
 611              		.loc 1 362 18 is_stmt 0 view .LVU146
 612 0002 094B     		ldr	r3, .L50
 613 0004 1B78     		ldrb	r3, [r3]
 614              		.loc 1 362 7 view .LVU147
 615 0006 002B     		cmp	r3, #0
 616 0008 07D1     		bne	.L46
 363:modbus/mb.c   ****     {
 364:modbus/mb.c   ****         pvMBFrameStopCur(  );
 617              		.loc 1 364 9 is_stmt 1 view .LVU148
 618 000a 084B     		ldr	r3, .L50+4
 619 000c 1B68     		ldr	r3, [r3]
 620 000e 9847     		blx	r3
 621              	.LVL48:
 365:modbus/mb.c   ****         eMBState = STATE_DISABLED;
 622              		.loc 1 365 9 view .LVU149
 623              		.loc 1 365 18 is_stmt 0 view .LVU150
 624 0010 054B     		ldr	r3, .L50
 625 0012 0122     		movs	r2, #1
 626 0014 1A70     		strb	r2, [r3]
 366:modbus/mb.c   ****         eStatus = MB_ENOERR;
 627              		.loc 1 366 9 is_stmt 1 view .LVU151
 628              	.LVL49:
 629              		.loc 1 366 17 is_stmt 0 view .LVU152
 630 0016 0020     		movs	r0, #0
 631              	.LVL50:
 632              	.L47:
 367:modbus/mb.c   ****     }
 368:modbus/mb.c   ****     else if( eMBState == STATE_DISABLED )
 369:modbus/mb.c   ****     {
 370:modbus/mb.c   ****         eStatus = MB_ENOERR;
 371:modbus/mb.c   ****     }
 372:modbus/mb.c   ****     else
 373:modbus/mb.c   ****     {
 374:modbus/mb.c   ****         eStatus = MB_EILLSTATE;
 375:modbus/mb.c   ****     }
 376:modbus/mb.c   ****     return eStatus;
 633              		.loc 1 376 5 is_stmt 1 view .LVU153
 377:modbus/mb.c   **** }
 634              		.loc 1 377 1 is_stmt 0 view .LVU154
 635              		@ sp needed
 636 0018 10BD     		pop	{r4, pc}
 637              	.LVL51:
 638              	.L46:
 368:modbus/mb.c   ****     {
 639              		.loc 1 368 10 is_stmt 1 view .LVU155
 368:modbus/mb.c   ****     {
 640              		.loc 1 368 12 is_stmt 0 view .LVU156
 641 001a 012B     		cmp	r3, #1
 642 001c 01D0     		beq	.L49
 374:modbus/mb.c   ****     }
 643              		.loc 1 374 17 view .LVU157
 644 001e 0620     		movs	r0, #6
ARM GAS  /tmp/ccrMcL7D.s 			page 21


 645 0020 FAE7     		b	.L47
 646              	.L49:
 370:modbus/mb.c   ****     }
 647              		.loc 1 370 17 view .LVU158
 648 0022 0020     		movs	r0, #0
 649 0024 F8E7     		b	.L47
 650              	.L51:
 651 0026 C046     		.align	2
 652              	.L50:
 653 0028 00000000 		.word	.LANCHOR6
 654 002c 00000000 		.word	.LANCHOR2
 655              		.cfi_endproc
 656              	.LFE45:
 658              		.section	.text.eMBPoll,"ax",%progbits
 659              		.align	1
 660              		.global	eMBPoll
 661              		.syntax unified
 662              		.code	16
 663              		.thumb_func
 664              		.fpu softvfp
 666              	eMBPoll:
 667              	.LFB46:
 378:modbus/mb.c   **** 
 379:modbus/mb.c   **** eMBErrorCode
 380:modbus/mb.c   **** eMBPoll( void )
 381:modbus/mb.c   **** {
 668              		.loc 1 381 1 is_stmt 1 view -0
 669              		.cfi_startproc
 670              		@ args = 0, pretend = 0, frame = 8
 671              		@ frame_needed = 0, uses_anonymous_args = 0
 672 0000 10B5     		push	{r4, lr}
 673              	.LCFI5:
 674              		.cfi_def_cfa_offset 8
 675              		.cfi_offset 4, -8
 676              		.cfi_offset 14, -4
 677 0002 82B0     		sub	sp, sp, #8
 678              	.LCFI6:
 679              		.cfi_def_cfa_offset 16
 382:modbus/mb.c   ****     static UCHAR   *ucMBFrame;
 680              		.loc 1 382 5 view .LVU160
 383:modbus/mb.c   ****     static UCHAR    ucRcvAddress;
 681              		.loc 1 383 5 view .LVU161
 384:modbus/mb.c   ****     static UCHAR    ucFunctionCode;
 682              		.loc 1 384 5 view .LVU162
 385:modbus/mb.c   ****     static USHORT   usLength;
 683              		.loc 1 385 5 view .LVU163
 386:modbus/mb.c   ****     static eMBException eException;
 684              		.loc 1 386 5 view .LVU164
 387:modbus/mb.c   **** 
 388:modbus/mb.c   ****     int             i;
 685              		.loc 1 388 5 view .LVU165
 389:modbus/mb.c   ****     eMBErrorCode    eStatus = MB_ENOERR;
 686              		.loc 1 389 5 view .LVU166
 687              	.LVL52:
 390:modbus/mb.c   ****     eMBEventType    eEvent;
 688              		.loc 1 390 5 view .LVU167
 391:modbus/mb.c   **** 
ARM GAS  /tmp/ccrMcL7D.s 			page 22


 392:modbus/mb.c   ****     /* Check if the protocol stack is ready. */
 393:modbus/mb.c   ****     if( eMBState != STATE_ENABLED )
 689              		.loc 1 393 5 view .LVU168
 690              		.loc 1 393 18 is_stmt 0 view .LVU169
 691 0004 364B     		ldr	r3, .L67
 692 0006 1B78     		ldrb	r3, [r3]
 693              		.loc 1 393 7 view .LVU170
 694 0008 002B     		cmp	r3, #0
 695 000a 63D1     		bne	.L62
 394:modbus/mb.c   ****     {
 395:modbus/mb.c   ****         return MB_EILLSTATE;
 396:modbus/mb.c   ****     }
 397:modbus/mb.c   **** 
 398:modbus/mb.c   ****     /* Check if there is a event available. If not return control to caller.
 399:modbus/mb.c   ****      * Otherwise we will handle the event. */
 400:modbus/mb.c   ****     if( xMBPortEventGet( &eEvent ) == TRUE )
 696              		.loc 1 400 5 is_stmt 1 view .LVU171
 697              		.loc 1 400 9 is_stmt 0 view .LVU172
 698 000c 6B46     		mov	r3, sp
 699 000e D81D     		adds	r0, r3, #7
 700 0010 FFF7FEFF 		bl	xMBPortEventGet
 701              	.LVL53:
 702              		.loc 1 400 7 view .LVU173
 703 0014 0128     		cmp	r0, #1
 704 0016 03D0     		beq	.L66
 401:modbus/mb.c   ****     {
 402:modbus/mb.c   ****         switch ( eEvent )
 403:modbus/mb.c   ****         {
 404:modbus/mb.c   ****         case EV_READY:
 405:modbus/mb.c   ****             break;
 406:modbus/mb.c   **** 
 407:modbus/mb.c   ****         case EV_FRAME_RECEIVED:
 408:modbus/mb.c   ****             eStatus = peMBFrameReceiveCur( &ucRcvAddress, &ucMBFrame, &usLength );
 409:modbus/mb.c   ****             if( eStatus == MB_ENOERR )
 410:modbus/mb.c   ****             {
 411:modbus/mb.c   ****                 /* Check if the frame is for us. If not ignore the frame. */
 412:modbus/mb.c   ****                 if( ( ucRcvAddress == ucMBAddress ) || ( ucRcvAddress == MB_ADDRESS_BROADCAST ) )
 413:modbus/mb.c   ****                 {
 414:modbus/mb.c   ****                     ( void )xMBPortEventPost( EV_EXECUTE );
 415:modbus/mb.c   ****                 }
 416:modbus/mb.c   ****             }
 417:modbus/mb.c   ****             break;
 418:modbus/mb.c   **** 
 419:modbus/mb.c   ****         case EV_EXECUTE:
 420:modbus/mb.c   ****             ucFunctionCode = ucMBFrame[MB_PDU_FUNC_OFF];
 421:modbus/mb.c   ****             eException = MB_EX_ILLEGAL_FUNCTION;
 422:modbus/mb.c   ****             for( i = 0; i < MB_FUNC_HANDLERS_MAX; i++ )
 423:modbus/mb.c   ****             {
 424:modbus/mb.c   ****                 /* No more function handlers registered. Abort. */
 425:modbus/mb.c   ****                 if( xFuncHandlers[i].ucFunctionCode == 0 )
 426:modbus/mb.c   ****                 {
 427:modbus/mb.c   ****                     break;
 428:modbus/mb.c   ****                 }
 429:modbus/mb.c   ****                 else if( xFuncHandlers[i].ucFunctionCode == ucFunctionCode )
 430:modbus/mb.c   ****                 {
 431:modbus/mb.c   ****                     eException = xFuncHandlers[i].pxHandler( ucMBFrame, &usLength );
 432:modbus/mb.c   ****                     break;
ARM GAS  /tmp/ccrMcL7D.s 			page 23


 433:modbus/mb.c   ****                 }
 434:modbus/mb.c   ****             }
 435:modbus/mb.c   **** 
 436:modbus/mb.c   ****             /* If the request was not sent to the broadcast address we
 437:modbus/mb.c   ****              * return a reply. */
 438:modbus/mb.c   ****             if( ucRcvAddress != MB_ADDRESS_BROADCAST )
 439:modbus/mb.c   ****             {
 440:modbus/mb.c   ****                 if( eException != MB_EX_NONE )
 441:modbus/mb.c   ****                 {
 442:modbus/mb.c   ****                     /* An exception occured. Build an error frame. */
 443:modbus/mb.c   ****                     usLength = 0;
 444:modbus/mb.c   ****                     ucMBFrame[usLength++] = ( UCHAR )( ucFunctionCode | MB_FUNC_ERROR );
 445:modbus/mb.c   ****                     ucMBFrame[usLength++] = eException;
 446:modbus/mb.c   ****                 }
 447:modbus/mb.c   ****                 if( ( eMBCurrentMode == MB_ASCII ) && MB_ASCII_TIMEOUT_WAIT_BEFORE_SEND_MS )
 448:modbus/mb.c   ****                 {
 449:modbus/mb.c   ****                     vMBPortTimersDelay( MB_ASCII_TIMEOUT_WAIT_BEFORE_SEND_MS );
 450:modbus/mb.c   ****                 }                
 451:modbus/mb.c   ****                 eStatus = peMBFrameSendCur( ucMBAddress, ucMBFrame, usLength );
 452:modbus/mb.c   ****             }
 453:modbus/mb.c   ****             break;
 454:modbus/mb.c   **** 
 455:modbus/mb.c   ****         case EV_FRAME_SENT:
 456:modbus/mb.c   ****             break;
 457:modbus/mb.c   ****         }
 458:modbus/mb.c   ****     }
 459:modbus/mb.c   ****     return MB_ENOERR;
 705              		.loc 1 459 12 view .LVU174
 706 0018 0024     		movs	r4, #0
 707              	.LVL54:
 708              	.L53:
 460:modbus/mb.c   **** }
 709              		.loc 1 460 1 view .LVU175
 710 001a 2000     		movs	r0, r4
 711 001c 02B0     		add	sp, sp, #8
 712              		@ sp needed
 713 001e 10BD     		pop	{r4, pc}
 714              	.LVL55:
 715              	.L66:
 402:modbus/mb.c   ****         {
 716              		.loc 1 402 9 is_stmt 1 view .LVU176
 717 0020 6B46     		mov	r3, sp
 718 0022 0733     		adds	r3, r3, #7
 719 0024 1B78     		ldrb	r3, [r3]
 720 0026 012B     		cmp	r3, #1
 721 0028 03D0     		beq	.L54
 722 002a 022B     		cmp	r3, #2
 723 002c 15D0     		beq	.L55
 459:modbus/mb.c   **** }
 724              		.loc 1 459 12 is_stmt 0 view .LVU177
 725 002e 0024     		movs	r4, #0
 726 0030 F3E7     		b	.L53
 727              	.L54:
 408:modbus/mb.c   ****             if( eStatus == MB_ENOERR )
 728              		.loc 1 408 13 is_stmt 1 view .LVU178
 408:modbus/mb.c   ****             if( eStatus == MB_ENOERR )
 729              		.loc 1 408 23 is_stmt 0 view .LVU179
ARM GAS  /tmp/ccrMcL7D.s 			page 24


 730 0032 2C4B     		ldr	r3, .L67+4
 731 0034 1B68     		ldr	r3, [r3]
 732 0036 2C4A     		ldr	r2, .L67+8
 733 0038 2C49     		ldr	r1, .L67+12
 734 003a 2D48     		ldr	r0, .L67+16
 735 003c 9847     		blx	r3
 736              	.LVL56:
 737 003e 041E     		subs	r4, r0, #0
 738              	.LVL57:
 409:modbus/mb.c   ****             {
 739              		.loc 1 409 13 is_stmt 1 view .LVU180
 409:modbus/mb.c   ****             {
 740              		.loc 1 409 15 is_stmt 0 view .LVU181
 741 0040 4AD1     		bne	.L64
 412:modbus/mb.c   ****                 {
 742              		.loc 1 412 17 is_stmt 1 view .LVU182
 412:modbus/mb.c   ****                 {
 743              		.loc 1 412 36 is_stmt 0 view .LVU183
 744 0042 2B4B     		ldr	r3, .L67+16
 745 0044 1B78     		ldrb	r3, [r3]
 746 0046 2B4A     		ldr	r2, .L67+20
 747 0048 1278     		ldrb	r2, [r2]
 412:modbus/mb.c   ****                 {
 748              		.loc 1 412 19 view .LVU184
 749 004a 9342     		cmp	r3, r2
 750 004c 01D0     		beq	.L56
 412:modbus/mb.c   ****                 {
 751              		.loc 1 412 53 discriminator 1 view .LVU185
 752 004e 002B     		cmp	r3, #0
 753 0050 E3D1     		bne	.L53
 754              	.L56:
 414:modbus/mb.c   ****                 }
 755              		.loc 1 414 21 is_stmt 1 view .LVU186
 414:modbus/mb.c   ****                 }
 756              		.loc 1 414 29 is_stmt 0 view .LVU187
 757 0052 0220     		movs	r0, #2
 758              	.LVL58:
 414:modbus/mb.c   ****                 }
 759              		.loc 1 414 29 view .LVU188
 760 0054 FFF7FEFF 		bl	xMBPortEventPost
 761              	.LVL59:
 762 0058 DFE7     		b	.L53
 763              	.LVL60:
 764              	.L55:
 420:modbus/mb.c   ****             eException = MB_EX_ILLEGAL_FUNCTION;
 765              		.loc 1 420 13 is_stmt 1 view .LVU189
 420:modbus/mb.c   ****             eException = MB_EX_ILLEGAL_FUNCTION;
 766              		.loc 1 420 39 is_stmt 0 view .LVU190
 767 005a 244B     		ldr	r3, .L67+12
 768 005c 1868     		ldr	r0, [r3]
 769 005e 0478     		ldrb	r4, [r0]
 420:modbus/mb.c   ****             eException = MB_EX_ILLEGAL_FUNCTION;
 770              		.loc 1 420 28 view .LVU191
 771 0060 254B     		ldr	r3, .L67+24
 772 0062 1C70     		strb	r4, [r3]
 421:modbus/mb.c   ****             for( i = 0; i < MB_FUNC_HANDLERS_MAX; i++ )
 773              		.loc 1 421 13 is_stmt 1 view .LVU192
ARM GAS  /tmp/ccrMcL7D.s 			page 25


 421:modbus/mb.c   ****             for( i = 0; i < MB_FUNC_HANDLERS_MAX; i++ )
 774              		.loc 1 421 24 is_stmt 0 view .LVU193
 775 0064 254B     		ldr	r3, .L67+28
 776 0066 0122     		movs	r2, #1
 777 0068 1A70     		strb	r2, [r3]
 422:modbus/mb.c   ****             {
 778              		.loc 1 422 13 is_stmt 1 view .LVU194
 779              	.LVL61:
 422:modbus/mb.c   ****             {
 780              		.loc 1 422 20 is_stmt 0 view .LVU195
 781 006a 0023     		movs	r3, #0
 422:modbus/mb.c   ****             {
 782              		.loc 1 422 13 view .LVU196
 783 006c 00E0     		b	.L57
 784              	.LVL62:
 785              	.L59:
 422:modbus/mb.c   ****             {
 786              		.loc 1 422 52 discriminator 2 view .LVU197
 787 006e 0133     		adds	r3, r3, #1
 788              	.LVL63:
 789              	.L57:
 422:modbus/mb.c   ****             {
 790              		.loc 1 422 13 discriminator 1 view .LVU198
 791 0070 0F2B     		cmp	r3, #15
 792 0072 0DDC     		bgt	.L58
 425:modbus/mb.c   ****                 {
 793              		.loc 1 425 17 is_stmt 1 view .LVU199
 425:modbus/mb.c   ****                 {
 794              		.loc 1 425 37 is_stmt 0 view .LVU200
 795 0074 DA00     		lsls	r2, r3, #3
 796 0076 2249     		ldr	r1, .L67+32
 797 0078 525C     		ldrb	r2, [r2, r1]
 425:modbus/mb.c   ****                 {
 798              		.loc 1 425 19 view .LVU201
 799 007a 002A     		cmp	r2, #0
 800 007c 08D0     		beq	.L58
 429:modbus/mb.c   ****                 {
 801              		.loc 1 429 22 is_stmt 1 view .LVU202
 429:modbus/mb.c   ****                 {
 802              		.loc 1 429 24 is_stmt 0 view .LVU203
 803 007e 9442     		cmp	r4, r2
 804 0080 F5D1     		bne	.L59
 431:modbus/mb.c   ****                     break;
 805              		.loc 1 431 21 is_stmt 1 view .LVU204
 431:modbus/mb.c   ****                     break;
 806              		.loc 1 431 50 is_stmt 0 view .LVU205
 807 0082 DB00     		lsls	r3, r3, #3
 808              	.LVL64:
 431:modbus/mb.c   ****                     break;
 809              		.loc 1 431 50 view .LVU206
 810 0084 CB18     		adds	r3, r1, r3
 811 0086 5B68     		ldr	r3, [r3, #4]
 431:modbus/mb.c   ****                     break;
 812              		.loc 1 431 34 view .LVU207
 813 0088 1749     		ldr	r1, .L67+8
 814 008a 9847     		blx	r3
 815              	.LVL65:
ARM GAS  /tmp/ccrMcL7D.s 			page 26


 431:modbus/mb.c   ****                     break;
 816              		.loc 1 431 32 view .LVU208
 817 008c 1B4B     		ldr	r3, .L67+28
 818 008e 1870     		strb	r0, [r3]
 432:modbus/mb.c   ****                 }
 819              		.loc 1 432 21 is_stmt 1 view .LVU209
 820              	.L58:
 438:modbus/mb.c   ****             {
 821              		.loc 1 438 13 view .LVU210
 438:modbus/mb.c   ****             {
 822              		.loc 1 438 30 is_stmt 0 view .LVU211
 823 0090 174B     		ldr	r3, .L67+16
 824 0092 1B78     		ldrb	r3, [r3]
 438:modbus/mb.c   ****             {
 825              		.loc 1 438 15 view .LVU212
 826 0094 002B     		cmp	r3, #0
 827 0096 21D0     		beq	.L65
 440:modbus/mb.c   ****                 {
 828              		.loc 1 440 17 is_stmt 1 view .LVU213
 440:modbus/mb.c   ****                 {
 829              		.loc 1 440 32 is_stmt 0 view .LVU214
 830 0098 184B     		ldr	r3, .L67+28
 831 009a 1B78     		ldrb	r3, [r3]
 440:modbus/mb.c   ****                 {
 832              		.loc 1 440 19 view .LVU215
 833 009c 002B     		cmp	r3, #0
 834 009e 0ED0     		beq	.L61
 443:modbus/mb.c   ****                     ucMBFrame[usLength++] = ( UCHAR )( ucFunctionCode | MB_FUNC_ERROR );
 835              		.loc 1 443 21 is_stmt 1 view .LVU216
 444:modbus/mb.c   ****                     ucMBFrame[usLength++] = eException;
 836              		.loc 1 444 21 view .LVU217
 444:modbus/mb.c   ****                     ucMBFrame[usLength++] = eException;
 837              		.loc 1 444 45 is_stmt 0 view .LVU218
 838 00a0 154A     		ldr	r2, .L67+24
 839 00a2 1478     		ldrb	r4, [r2]
 444:modbus/mb.c   ****                     ucMBFrame[usLength++] = eException;
 840              		.loc 1 444 30 view .LVU219
 841 00a4 1148     		ldr	r0, .L67+12
 444:modbus/mb.c   ****                     ucMBFrame[usLength++] = eException;
 842              		.loc 1 444 39 view .LVU220
 843 00a6 104A     		ldr	r2, .L67+8
 844 00a8 0121     		movs	r1, #1
 845 00aa 1180     		strh	r1, [r2]
 444:modbus/mb.c   ****                     ucMBFrame[usLength++] = eException;
 846              		.loc 1 444 45 view .LVU221
 847 00ac 8139     		subs	r1, r1, #129
 848 00ae 2143     		orrs	r1, r4
 444:modbus/mb.c   ****                     ucMBFrame[usLength++] = eException;
 849              		.loc 1 444 43 view .LVU222
 850 00b0 0468     		ldr	r4, [r0]
 851 00b2 2170     		strb	r1, [r4]
 445:modbus/mb.c   ****                 }
 852              		.loc 1 445 21 is_stmt 1 view .LVU223
 445:modbus/mb.c   ****                 }
 853              		.loc 1 445 30 is_stmt 0 view .LVU224
 854 00b4 0068     		ldr	r0, [r0]
 445:modbus/mb.c   ****                 }
ARM GAS  /tmp/ccrMcL7D.s 			page 27


 855              		.loc 1 445 39 view .LVU225
 856 00b6 1188     		ldrh	r1, [r2]
 857 00b8 4C1C     		adds	r4, r1, #1
 858 00ba 1480     		strh	r4, [r2]
 445:modbus/mb.c   ****                 }
 859              		.loc 1 445 43 view .LVU226
 860 00bc 4354     		strb	r3, [r0, r1]
 861              	.L61:
 447:modbus/mb.c   ****                 {
 862              		.loc 1 447 17 is_stmt 1 view .LVU227
 451:modbus/mb.c   ****             }
 863              		.loc 1 451 17 view .LVU228
 451:modbus/mb.c   ****             }
 864              		.loc 1 451 27 is_stmt 0 view .LVU229
 865 00be 0A4B     		ldr	r3, .L67+8
 866 00c0 1A88     		ldrh	r2, [r3]
 867 00c2 0A4B     		ldr	r3, .L67+12
 868 00c4 1968     		ldr	r1, [r3]
 869 00c6 0B4B     		ldr	r3, .L67+20
 870 00c8 1878     		ldrb	r0, [r3]
 871 00ca 0E4B     		ldr	r3, .L67+36
 872 00cc 1B68     		ldr	r3, [r3]
 873 00ce 9847     		blx	r3
 874              	.LVL66:
 459:modbus/mb.c   **** }
 875              		.loc 1 459 12 view .LVU230
 876 00d0 0024     		movs	r4, #0
 877 00d2 A2E7     		b	.L53
 878              	.LVL67:
 879              	.L62:
 395:modbus/mb.c   ****     }
 880              		.loc 1 395 16 view .LVU231
 881 00d4 0624     		movs	r4, #6
 882 00d6 A0E7     		b	.L53
 883              	.LVL68:
 884              	.L64:
 459:modbus/mb.c   **** }
 885              		.loc 1 459 12 view .LVU232
 886 00d8 0024     		movs	r4, #0
 887 00da 9EE7     		b	.L53
 888              	.LVL69:
 889              	.L65:
 459:modbus/mb.c   **** }
 890              		.loc 1 459 12 view .LVU233
 891 00dc 0024     		movs	r4, #0
 892 00de 9CE7     		b	.L53
 893              	.L68:
 894              		.align	2
 895              	.L67:
 896 00e0 00000000 		.word	.LANCHOR6
 897 00e4 00000000 		.word	.LANCHOR4
 898 00e8 00000000 		.word	.LANCHOR7
 899 00ec 00000000 		.word	.LANCHOR8
 900 00f0 00000000 		.word	.LANCHOR9
 901 00f4 00000000 		.word	.LANCHOR0
 902 00f8 00000000 		.word	.LANCHOR10
 903 00fc 00000000 		.word	.LANCHOR11
ARM GAS  /tmp/ccrMcL7D.s 			page 28


 904 0100 00000000 		.word	xFuncHandlers
 905 0104 00000000 		.word	.LANCHOR3
 906              		.cfi_endproc
 907              	.LFE46:
 909              		.comm	pxMBFrameCBTransmitFSMCur,4,4
 910              		.comm	pxMBFrameCBReceiveFSMCur,4,4
 911              		.comm	pxMBPortCBTimerExpired,4,4
 912              		.comm	pxMBFrameCBTransmitterEmpty,4,4
 913              		.comm	pxMBFrameCBByteReceived,4,4
 914              		.section	.bss.eException.7985,"aw",%nobits
 915              		.set	.LANCHOR11,. + 0
 918              	eException.7985:
 919 0000 00       		.space	1
 920              		.section	.bss.peMBFrameReceiveCur,"aw",%nobits
 921              		.align	2
 922              		.set	.LANCHOR4,. + 0
 925              	peMBFrameReceiveCur:
 926 0000 00000000 		.space	4
 927              		.section	.bss.peMBFrameSendCur,"aw",%nobits
 928              		.align	2
 929              		.set	.LANCHOR3,. + 0
 932              	peMBFrameSendCur:
 933 0000 00000000 		.space	4
 934              		.section	.bss.pvMBFrameCloseCur,"aw",%nobits
 935              		.align	2
 936              		.set	.LANCHOR5,. + 0
 939              	pvMBFrameCloseCur:
 940 0000 00000000 		.space	4
 941              		.section	.bss.pvMBFrameStartCur,"aw",%nobits
 942              		.align	2
 943              		.set	.LANCHOR1,. + 0
 946              	pvMBFrameStartCur:
 947 0000 00000000 		.space	4
 948              		.section	.bss.pvMBFrameStopCur,"aw",%nobits
 949              		.align	2
 950              		.set	.LANCHOR2,. + 0
 953              	pvMBFrameStopCur:
 954 0000 00000000 		.space	4
 955              		.section	.bss.ucFunctionCode.7983,"aw",%nobits
 956              		.set	.LANCHOR10,. + 0
 959              	ucFunctionCode.7983:
 960 0000 00       		.space	1
 961              		.section	.bss.ucMBAddress,"aw",%nobits
 962              		.set	.LANCHOR0,. + 0
 965              	ucMBAddress:
 966 0000 00       		.space	1
 967              		.section	.bss.ucMBFrame.7981,"aw",%nobits
 968              		.align	2
 969              		.set	.LANCHOR8,. + 0
 972              	ucMBFrame.7981:
 973 0000 00000000 		.space	4
 974              		.section	.bss.ucRcvAddress.7982,"aw",%nobits
 975              		.set	.LANCHOR9,. + 0
 978              	ucRcvAddress.7982:
 979 0000 00       		.space	1
 980              		.section	.bss.usLength.7984,"aw",%nobits
 981              		.align	1
ARM GAS  /tmp/ccrMcL7D.s 			page 29


 982              		.set	.LANCHOR7,. + 0
 985              	usLength.7984:
 986 0000 0000     		.space	2
 987              		.section	.data.eMBState,"aw"
 988              		.set	.LANCHOR6,. + 0
 991              	eMBState:
 992 0000 02       		.byte	2
 993              		.section	.data.xFuncHandlers,"aw"
 994              		.align	2
 997              	xFuncHandlers:
 998 0000 11       		.byte	17
 999 0001 000000   		.space	3
 1000 0004 00000000 		.word	eMBFuncReportSlaveID
 1001 0008 04       		.byte	4
 1002 0009 000000   		.space	3
 1003 000c 00000000 		.word	eMBFuncReadInputRegister
 1004 0010 03       		.byte	3
 1005 0011 000000   		.space	3
 1006 0014 00000000 		.word	eMBFuncReadHoldingRegister
 1007 0018 10       		.byte	16
 1008 0019 000000   		.space	3
 1009 001c 00000000 		.word	eMBFuncWriteMultipleHoldingRegister
 1010 0020 06       		.byte	6
 1011 0021 000000   		.space	3
 1012 0024 00000000 		.word	eMBFuncWriteHoldingRegister
 1013 0028 17       		.byte	23
 1014 0029 000000   		.space	3
 1015 002c 00000000 		.word	eMBFuncReadWriteMultipleHoldingRegister
 1016 0030 01       		.byte	1
 1017 0031 000000   		.space	3
 1018 0034 00000000 		.word	eMBFuncReadCoils
 1019 0038 05       		.byte	5
 1020 0039 000000   		.space	3
 1021 003c 00000000 		.word	eMBFuncWriteCoil
 1022 0040 0F       		.byte	15
 1023 0041 000000   		.space	3
 1024 0044 00000000 		.word	eMBFuncWriteMultipleCoils
 1025 0048 02       		.byte	2
 1026 0049 000000   		.space	3
 1027 004c 00000000 		.word	eMBFuncReadDiscreteInputs
 1028 0050 00000000 		.space	48
 1028      00000000 
 1028      00000000 
 1028      00000000 
 1028      00000000 
 1029              		.text
 1030              	.Letext0:
 1031              		.file 3 "/opt/gcc-arm-none-eabi-8-2018-q4-major/arm-none-eabi/include/machine/_default_types.h"
 1032              		.file 4 "/opt/gcc-arm-none-eabi-8-2018-q4-major/arm-none-eabi/include/sys/lock.h"
 1033              		.file 5 "/opt/gcc-arm-none-eabi-8-2018-q4-major/arm-none-eabi/include/sys/_types.h"
 1034              		.file 6 "/opt/gcc-arm-none-eabi-8-2018-q4-major/lib/gcc/arm-none-eabi/8.2.1/include/stddef.h"
 1035              		.file 7 "/opt/gcc-arm-none-eabi-8-2018-q4-major/arm-none-eabi/include/sys/reent.h"
 1036              		.file 8 "/opt/gcc-arm-none-eabi-8-2018-q4-major/arm-none-eabi/include/stdlib.h"
 1037              		.file 9 "/opt/gcc-arm-none-eabi-8-2018-q4-major/arm-none-eabi/include/sys/_stdint.h"
 1038              		.file 10 "Drivers/CMSIS/Device/ST/STM32F0xx/Include/system_stm32f0xx.h"
 1039              		.file 11 "modbus/port/port.h"
 1040              		.file 12 "modbus/include/mbport.h"
ARM GAS  /tmp/ccrMcL7D.s 			page 30


 1041              		.file 13 "modbus/include/mbproto.h"
 1042              		.file 14 "modbus/include/mb.h"
 1043              		.file 15 "modbus/include/mbframe.h"
 1044              		.file 16 "modbus/rtu/mbrtu.h"
ARM GAS  /tmp/ccrMcL7D.s 			page 31

