ARM GAS  /tmp/cc1CX1F8.s 			page 1


   1              		.cpu cortex-m0
   2              		.eabi_attribute 20, 1
   3              		.eabi_attribute 21, 1
   4              		.eabi_attribute 23, 3
   5              		.eabi_attribute 24, 1
   6              		.eabi_attribute 25, 1
   7              		.eabi_attribute 26, 1
   8              		.eabi_attribute 30, 1
   9              		.eabi_attribute 34, 0
  10              		.eabi_attribute 18, 4
  11              		.file	"porttimer.c"
  12              		.text
  13              	.Ltext0:
  14              		.cfi_sections	.debug_frame
  15              		.section	.text.prvvTIMERExpiredISR,"ax",%progbits
  16              		.align	1
  17              		.arch armv6s-m
  18              		.syntax unified
  19              		.code	16
  20              		.thumb_func
  21              		.fpu softvfp
  23              	prvvTIMERExpiredISR:
  24              	.LFB40:
  25              		.file 1 "modbus/port/porttimer.c"
   1:modbus/port/porttimer.c **** /*
   2:modbus/port/porttimer.c ****  * FreeModbus Libary: BARE Port
   3:modbus/port/porttimer.c ****  * Copyright (C) 2006 Christian Walter <wolti@sil.at>
   4:modbus/port/porttimer.c ****  *
   5:modbus/port/porttimer.c ****  * This library is free software; you can redistribute it and/or
   6:modbus/port/porttimer.c ****  * modify it under the terms of the GNU Lesser General Public
   7:modbus/port/porttimer.c ****  * License as published by the Free Software Foundation; either
   8:modbus/port/porttimer.c ****  * version 2.1 of the License, or (at your option) any later version.
   9:modbus/port/porttimer.c ****  *
  10:modbus/port/porttimer.c ****  * This library is distributed in the hope that it will be useful,
  11:modbus/port/porttimer.c ****  * but WITHOUT ANY WARRANTY; without even the implied warranty of
  12:modbus/port/porttimer.c ****  * MERCHANTABILITY or FITNESS FOR A PARTICULAR PURPOSE.  See the GNU
  13:modbus/port/porttimer.c ****  * Lesser General Public License for more details.
  14:modbus/port/porttimer.c ****  *
  15:modbus/port/porttimer.c ****  * You should have received a copy of the GNU Lesser General Public
  16:modbus/port/porttimer.c ****  * License along with this library; if not, write to the Free Software
  17:modbus/port/porttimer.c ****  * Foundation, Inc., 51 Franklin St, Fifth Floor, Boston, MA  02110-1301  USA
  18:modbus/port/porttimer.c ****  *
  19:modbus/port/porttimer.c ****  * File: $Id$
  20:modbus/port/porttimer.c ****  */
  21:modbus/port/porttimer.c **** 
  22:modbus/port/porttimer.c **** /* ----------------------- Platform includes --------------------------------*/
  23:modbus/port/porttimer.c **** #include "port.h"
  24:modbus/port/porttimer.c **** #include "stm32f0xx_hal.h"
  25:modbus/port/porttimer.c **** /* ----------------------- Modbus includes ----------------------------------*/
  26:modbus/port/porttimer.c **** #include "mb.h"
  27:modbus/port/porttimer.c **** #include "mbport.h"
  28:modbus/port/porttimer.c **** 
  29:modbus/port/porttimer.c **** /* ----------------------- static functions ---------------------------------*/
  30:modbus/port/porttimer.c **** static void prvvTIMERExpiredISR( void );
  31:modbus/port/porttimer.c **** static TIM_HandleTypeDef htim14;
  32:modbus/port/porttimer.c **** static uint16_t timeout = 0;
  33:modbus/port/porttimer.c **** static uint16_t counter = 0;
ARM GAS  /tmp/cc1CX1F8.s 			page 2


  34:modbus/port/porttimer.c **** /* ----------------------- Start implementation -----------------------------*/
  35:modbus/port/porttimer.c **** BOOL
  36:modbus/port/porttimer.c **** xMBPortTimersInit( USHORT usTim1Timerout50us )
  37:modbus/port/porttimer.c **** {
  38:modbus/port/porttimer.c ****     htim14.Instance = TIM14;
  39:modbus/port/porttimer.c ****     htim14.Init.CounterMode = TIM_COUNTERMODE_UP;
  40:modbus/port/porttimer.c ****     htim14.Init.Prescaler = (HAL_RCC_GetPCLK1Freq()/1000000);
  41:modbus/port/porttimer.c ****     htim14.Init.Period = 50 - 1;
  42:modbus/port/porttimer.c ****     timeout = usTim1Timerout50us;
  43:modbus/port/porttimer.c ****     return HAL_OK == HAL_TIM_Base_Init(&htim14) ? TRUE : FALSE;
  44:modbus/port/porttimer.c **** }
  45:modbus/port/porttimer.c **** 
  46:modbus/port/porttimer.c **** inline void
  47:modbus/port/porttimer.c **** vMBPortTimersEnable(  )
  48:modbus/port/porttimer.c **** {
  49:modbus/port/porttimer.c ****     counter = timeout;
  50:modbus/port/porttimer.c ****     HAL_TIM_Base_Start_IT(&htim14);
  51:modbus/port/porttimer.c ****     /* Enable the timer with the timeout passed to xMBPortTimersInit( ) */
  52:modbus/port/porttimer.c **** }
  53:modbus/port/porttimer.c **** 
  54:modbus/port/porttimer.c **** inline void
  55:modbus/port/porttimer.c **** vMBPortTimersDisable(  )
  56:modbus/port/porttimer.c **** {
  57:modbus/port/porttimer.c ****     HAL_TIM_Base_Stop_IT(&htim14);
  58:modbus/port/porttimer.c ****     /* Disable any pending timers. */
  59:modbus/port/porttimer.c **** }
  60:modbus/port/porttimer.c **** 
  61:modbus/port/porttimer.c **** /* Create an ISR which is called whenever the timer has expired. This function
  62:modbus/port/porttimer.c ****  * must then call pxMBPortCBTimerExpired( ) to notify the protocol stack that
  63:modbus/port/porttimer.c ****  * the timer has expired.
  64:modbus/port/porttimer.c ****  */
  65:modbus/port/porttimer.c **** static void prvvTIMERExpiredISR( void )
  66:modbus/port/porttimer.c **** {
  26              		.loc 1 66 1 view -0
  27              		.cfi_startproc
  28              		@ args = 0, pretend = 0, frame = 0
  29              		@ frame_needed = 0, uses_anonymous_args = 0
  30 0000 10B5     		push	{r4, lr}
  31              	.LCFI0:
  32              		.cfi_def_cfa_offset 8
  33              		.cfi_offset 4, -8
  34              		.cfi_offset 14, -4
  67:modbus/port/porttimer.c ****     ( void )pxMBPortCBTimerExpired(  );
  35              		.loc 1 67 5 view .LVU1
  36 0002 024B     		ldr	r3, .L2
  37 0004 1B68     		ldr	r3, [r3]
  38              		.loc 1 67 13 is_stmt 0 view .LVU2
  39 0006 9847     		blx	r3
  40              	.LVL0:
  68:modbus/port/porttimer.c **** }
  41              		.loc 1 68 1 view .LVU3
  42              		@ sp needed
  43 0008 10BD     		pop	{r4, pc}
  44              	.L3:
  45 000a C046     		.align	2
  46              	.L2:
  47 000c 00000000 		.word	pxMBPortCBTimerExpired
ARM GAS  /tmp/cc1CX1F8.s 			page 3


  48              		.cfi_endproc
  49              	.LFE40:
  51              		.global	__aeabi_uidiv
  52              		.section	.text.xMBPortTimersInit,"ax",%progbits
  53              		.align	1
  54              		.global	xMBPortTimersInit
  55              		.syntax unified
  56              		.code	16
  57              		.thumb_func
  58              		.fpu softvfp
  60              	xMBPortTimersInit:
  61              	.LVL1:
  62              	.LFB37:
  37:modbus/port/porttimer.c ****     htim14.Instance = TIM14;
  63              		.loc 1 37 1 is_stmt 1 view -0
  64              		.cfi_startproc
  65              		@ args = 0, pretend = 0, frame = 0
  66              		@ frame_needed = 0, uses_anonymous_args = 0
  37:modbus/port/porttimer.c ****     htim14.Instance = TIM14;
  67              		.loc 1 37 1 is_stmt 0 view .LVU5
  68 0000 70B5     		push	{r4, r5, r6, lr}
  69              	.LCFI1:
  70              		.cfi_def_cfa_offset 16
  71              		.cfi_offset 4, -16
  72              		.cfi_offset 5, -12
  73              		.cfi_offset 6, -8
  74              		.cfi_offset 14, -4
  75 0002 0500     		movs	r5, r0
  38:modbus/port/porttimer.c ****     htim14.Init.CounterMode = TIM_COUNTERMODE_UP;
  76              		.loc 1 38 5 is_stmt 1 view .LVU6
  38:modbus/port/porttimer.c ****     htim14.Init.CounterMode = TIM_COUNTERMODE_UP;
  77              		.loc 1 38 21 is_stmt 0 view .LVU7
  78 0004 0A4C     		ldr	r4, .L5
  79 0006 0B4B     		ldr	r3, .L5+4
  80 0008 2360     		str	r3, [r4]
  39:modbus/port/porttimer.c ****     htim14.Init.Prescaler = (HAL_RCC_GetPCLK1Freq()/1000000);
  81              		.loc 1 39 5 is_stmt 1 view .LVU8
  39:modbus/port/porttimer.c ****     htim14.Init.Prescaler = (HAL_RCC_GetPCLK1Freq()/1000000);
  82              		.loc 1 39 29 is_stmt 0 view .LVU9
  83 000a 0023     		movs	r3, #0
  84 000c A360     		str	r3, [r4, #8]
  40:modbus/port/porttimer.c ****     htim14.Init.Period = 50 - 1;
  85              		.loc 1 40 5 is_stmt 1 view .LVU10
  40:modbus/port/porttimer.c ****     htim14.Init.Period = 50 - 1;
  86              		.loc 1 40 30 is_stmt 0 view .LVU11
  87 000e FFF7FEFF 		bl	HAL_RCC_GetPCLK1Freq
  88              	.LVL2:
  40:modbus/port/porttimer.c ****     htim14.Init.Period = 50 - 1;
  89              		.loc 1 40 52 view .LVU12
  90 0012 0949     		ldr	r1, .L5+8
  91 0014 FFF7FEFF 		bl	__aeabi_uidiv
  92              	.LVL3:
  40:modbus/port/porttimer.c ****     htim14.Init.Period = 50 - 1;
  93              		.loc 1 40 27 view .LVU13
  94 0018 6060     		str	r0, [r4, #4]
  41:modbus/port/porttimer.c ****     timeout = usTim1Timerout50us;
  95              		.loc 1 41 5 is_stmt 1 view .LVU14
ARM GAS  /tmp/cc1CX1F8.s 			page 4


  41:modbus/port/porttimer.c ****     timeout = usTim1Timerout50us;
  96              		.loc 1 41 24 is_stmt 0 view .LVU15
  97 001a 3123     		movs	r3, #49
  98 001c E360     		str	r3, [r4, #12]
  42:modbus/port/porttimer.c ****     return HAL_OK == HAL_TIM_Base_Init(&htim14) ? TRUE : FALSE;
  99              		.loc 1 42 5 is_stmt 1 view .LVU16
  42:modbus/port/porttimer.c ****     return HAL_OK == HAL_TIM_Base_Init(&htim14) ? TRUE : FALSE;
 100              		.loc 1 42 13 is_stmt 0 view .LVU17
 101 001e 074B     		ldr	r3, .L5+12
 102 0020 1D80     		strh	r5, [r3]
  43:modbus/port/porttimer.c **** }
 103              		.loc 1 43 5 is_stmt 1 view .LVU18
  43:modbus/port/porttimer.c **** }
 104              		.loc 1 43 22 is_stmt 0 view .LVU19
 105 0022 2000     		movs	r0, r4
 106 0024 FFF7FEFF 		bl	HAL_TIM_Base_Init
 107              	.LVL4:
  43:modbus/port/porttimer.c **** }
 108              		.loc 1 43 56 view .LVU20
 109 0028 4342     		rsbs	r3, r0, #0
 110 002a 5841     		adcs	r0, r0, r3
 111 002c C0B2     		uxtb	r0, r0
  44:modbus/port/porttimer.c **** 
 112              		.loc 1 44 1 view .LVU21
 113              		@ sp needed
 114 002e 70BD     		pop	{r4, r5, r6, pc}
 115              	.L6:
 116              		.align	2
 117              	.L5:
 118 0030 00000000 		.word	.LANCHOR0
 119 0034 00200040 		.word	1073750016
 120 0038 40420F00 		.word	1000000
 121 003c 00000000 		.word	.LANCHOR1
 122              		.cfi_endproc
 123              	.LFE37:
 125              		.section	.text.vMBPortTimersEnable,"ax",%progbits
 126              		.align	1
 127              		.global	vMBPortTimersEnable
 128              		.syntax unified
 129              		.code	16
 130              		.thumb_func
 131              		.fpu softvfp
 133              	vMBPortTimersEnable:
 134              	.LFB38:
  48:modbus/port/porttimer.c ****     counter = timeout;
 135              		.loc 1 48 1 is_stmt 1 view -0
 136              		.cfi_startproc
 137              		@ args = 0, pretend = 0, frame = 0
 138              		@ frame_needed = 0, uses_anonymous_args = 0
 139 0000 10B5     		push	{r4, lr}
 140              	.LCFI2:
 141              		.cfi_def_cfa_offset 8
 142              		.cfi_offset 4, -8
 143              		.cfi_offset 14, -4
  49:modbus/port/porttimer.c ****     HAL_TIM_Base_Start_IT(&htim14);
 144              		.loc 1 49 5 view .LVU23
  49:modbus/port/porttimer.c ****     HAL_TIM_Base_Start_IT(&htim14);
ARM GAS  /tmp/cc1CX1F8.s 			page 5


 145              		.loc 1 49 13 is_stmt 0 view .LVU24
 146 0002 044B     		ldr	r3, .L8
 147 0004 1A88     		ldrh	r2, [r3]
 148 0006 044B     		ldr	r3, .L8+4
 149 0008 1A80     		strh	r2, [r3]
  50:modbus/port/porttimer.c ****     /* Enable the timer with the timeout passed to xMBPortTimersInit( ) */
 150              		.loc 1 50 5 is_stmt 1 view .LVU25
 151 000a 0448     		ldr	r0, .L8+8
 152 000c FFF7FEFF 		bl	HAL_TIM_Base_Start_IT
 153              	.LVL5:
  52:modbus/port/porttimer.c **** 
 154              		.loc 1 52 1 is_stmt 0 view .LVU26
 155              		@ sp needed
 156 0010 10BD     		pop	{r4, pc}
 157              	.L9:
 158 0012 C046     		.align	2
 159              	.L8:
 160 0014 00000000 		.word	.LANCHOR1
 161 0018 00000000 		.word	.LANCHOR2
 162 001c 00000000 		.word	.LANCHOR0
 163              		.cfi_endproc
 164              	.LFE38:
 166              		.section	.text.vMBPortTimersDisable,"ax",%progbits
 167              		.align	1
 168              		.global	vMBPortTimersDisable
 169              		.syntax unified
 170              		.code	16
 171              		.thumb_func
 172              		.fpu softvfp
 174              	vMBPortTimersDisable:
 175              	.LFB39:
  56:modbus/port/porttimer.c ****     HAL_TIM_Base_Stop_IT(&htim14);
 176              		.loc 1 56 1 is_stmt 1 view -0
 177              		.cfi_startproc
 178              		@ args = 0, pretend = 0, frame = 0
 179              		@ frame_needed = 0, uses_anonymous_args = 0
 180 0000 10B5     		push	{r4, lr}
 181              	.LCFI3:
 182              		.cfi_def_cfa_offset 8
 183              		.cfi_offset 4, -8
 184              		.cfi_offset 14, -4
  57:modbus/port/porttimer.c ****     /* Disable any pending timers. */
 185              		.loc 1 57 5 view .LVU28
 186 0002 0248     		ldr	r0, .L11
 187 0004 FFF7FEFF 		bl	HAL_TIM_Base_Stop_IT
 188              	.LVL6:
  59:modbus/port/porttimer.c **** 
 189              		.loc 1 59 1 is_stmt 0 view .LVU29
 190              		@ sp needed
 191 0008 10BD     		pop	{r4, pc}
 192              	.L12:
 193 000a C046     		.align	2
 194              	.L11:
 195 000c 00000000 		.word	.LANCHOR0
 196              		.cfi_endproc
 197              	.LFE39:
 199              		.section	.text.TIM14_DAC1_IRQHandler,"ax",%progbits
ARM GAS  /tmp/cc1CX1F8.s 			page 6


 200              		.align	1
 201              		.global	TIM14_DAC1_IRQHandler
 202              		.syntax unified
 203              		.code	16
 204              		.thumb_func
 205              		.fpu softvfp
 207              	TIM14_DAC1_IRQHandler:
 208              	.LFB41:
  69:modbus/port/porttimer.c **** void TIM14_DAC1_IRQHandler(void) {
 209              		.loc 1 69 34 is_stmt 1 view -0
 210              		.cfi_startproc
 211              		@ args = 0, pretend = 0, frame = 0
 212              		@ frame_needed = 0, uses_anonymous_args = 0
 213 0000 10B5     		push	{r4, lr}
 214              	.LCFI4:
 215              		.cfi_def_cfa_offset 8
 216              		.cfi_offset 4, -8
 217              		.cfi_offset 14, -4
  70:modbus/port/porttimer.c **** 	/* TIM Update event */
  71:modbus/port/porttimer.c ****     HAL_Delay(1000);
 218              		.loc 1 71 5 view .LVU31
 219 0002 FA20     		movs	r0, #250
 220 0004 8000     		lsls	r0, r0, #2
 221 0006 FFF7FEFF 		bl	HAL_Delay
 222              	.LVL7:
  72:modbus/port/porttimer.c **** 	if(__HAL_TIM_GET_FLAG(&htim14, TIM_FLAG_UPDATE) != RESET && __HAL_TIM_GET_IT_SOURCE(&htim14, TIM_I
 223              		.loc 1 72 2 view .LVU32
 224              		.loc 1 72 5 is_stmt 0 view .LVU33
 225 000a 0B4B     		ldr	r3, .L16
 226 000c 1B68     		ldr	r3, [r3]
 227 000e 1A69     		ldr	r2, [r3, #16]
 228              		.loc 1 72 4 view .LVU34
 229 0010 D207     		lsls	r2, r2, #31
 230 0012 0CD5     		bpl	.L13
 231              		.loc 1 72 62 discriminator 1 view .LVU35
 232 0014 DA68     		ldr	r2, [r3, #12]
 233              		.loc 1 72 59 discriminator 1 view .LVU36
 234 0016 D207     		lsls	r2, r2, #31
 235 0018 09D5     		bpl	.L13
  73:modbus/port/porttimer.c **** 		__HAL_TIM_CLEAR_IT(&htim14, TIM_IT_UPDATE);
 236              		.loc 1 73 3 is_stmt 1 view .LVU37
 237 001a 0222     		movs	r2, #2
 238 001c 5242     		rsbs	r2, r2, #0
 239 001e 1A61     		str	r2, [r3, #16]
  74:modbus/port/porttimer.c **** 		if (!--counter)
 240              		.loc 1 74 3 view .LVU38
 241              		.loc 1 74 8 is_stmt 0 view .LVU39
 242 0020 064A     		ldr	r2, .L16+4
 243 0022 1388     		ldrh	r3, [r2]
 244 0024 013B     		subs	r3, r3, #1
 245 0026 9BB2     		uxth	r3, r3
 246              		.loc 1 74 6 view .LVU40
 247 0028 1380     		strh	r3, [r2]
 248 002a 002B     		cmp	r3, #0
 249 002c 00D0     		beq	.L15
 250              	.L13:
  75:modbus/port/porttimer.c **** 			prvvTIMERExpiredISR();
ARM GAS  /tmp/cc1CX1F8.s 			page 7


  76:modbus/port/porttimer.c **** 	}
  77:modbus/port/porttimer.c **** }
 251              		.loc 1 77 1 view .LVU41
 252              		@ sp needed
 253 002e 10BD     		pop	{r4, pc}
 254              	.L15:
  75:modbus/port/porttimer.c **** 			prvvTIMERExpiredISR();
 255              		.loc 1 75 4 is_stmt 1 view .LVU42
 256 0030 FFF7FEFF 		bl	prvvTIMERExpiredISR
 257              	.LVL8:
 258              		.loc 1 77 1 is_stmt 0 view .LVU43
 259 0034 FBE7     		b	.L13
 260              	.L17:
 261 0036 C046     		.align	2
 262              	.L16:
 263 0038 00000000 		.word	.LANCHOR0
 264 003c 00000000 		.word	.LANCHOR2
 265              		.cfi_endproc
 266              	.LFE41:
 268              		.section	.bss.counter,"aw",%nobits
 269              		.align	1
 270              		.set	.LANCHOR2,. + 0
 273              	counter:
 274 0000 0000     		.space	2
 275              		.section	.bss.htim14,"aw",%nobits
 276              		.align	2
 277              		.set	.LANCHOR0,. + 0
 280              	htim14:
 281 0000 00000000 		.space	64
 281      00000000 
 281      00000000 
 281      00000000 
 281      00000000 
 282              		.section	.bss.timeout,"aw",%nobits
 283              		.align	1
 284              		.set	.LANCHOR1,. + 0
 287              	timeout:
 288 0000 0000     		.space	2
 289              		.text
 290              	.Letext0:
 291              		.file 2 "/opt/gcc-arm-none-eabi-8-2018-q4-major/arm-none-eabi/include/machine/_default_types.h"
 292              		.file 3 "/opt/gcc-arm-none-eabi-8-2018-q4-major/arm-none-eabi/include/sys/_stdint.h"
 293              		.file 4 "Drivers/CMSIS/Device/ST/STM32F0xx/Include/system_stm32f0xx.h"
 294              		.file 5 "Drivers/CMSIS/Device/ST/STM32F0xx/Include/stm32f070x6.h"
 295              		.file 6 "/opt/gcc-arm-none-eabi-8-2018-q4-major/arm-none-eabi/include/sys/lock.h"
 296              		.file 7 "/opt/gcc-arm-none-eabi-8-2018-q4-major/arm-none-eabi/include/sys/_types.h"
 297              		.file 8 "/opt/gcc-arm-none-eabi-8-2018-q4-major/lib/gcc/arm-none-eabi/8.2.1/include/stddef.h"
 298              		.file 9 "/opt/gcc-arm-none-eabi-8-2018-q4-major/arm-none-eabi/include/sys/reent.h"
 299              		.file 10 "Drivers/CMSIS/Device/ST/STM32F0xx/Include/stm32f0xx.h"
 300              		.file 11 "Drivers/STM32F0xx_HAL_Driver/Inc/stm32f0xx_hal_def.h"
 301              		.file 12 "Drivers/STM32F0xx_HAL_Driver/Inc/stm32f0xx_hal_dma.h"
 302              		.file 13 "Drivers/STM32F0xx_HAL_Driver/Inc/stm32f0xx_hal_tim.h"
 303              		.file 14 "modbus/port/port.h"
 304              		.file 15 "modbus/include/mbport.h"
 305              		.file 16 "Drivers/STM32F0xx_HAL_Driver/Inc/stm32f0xx_hal.h"
 306              		.file 17 "Drivers/STM32F0xx_HAL_Driver/Inc/stm32f0xx_hal_rcc.h"
ARM GAS  /tmp/cc1CX1F8.s 			page 8

