ARM GAS  /tmp/ccNyWSYX.s 			page 1


   1              		.cpu cortex-m0
   2              		.eabi_attribute 20, 1
   3              		.eabi_attribute 21, 1
   4              		.eabi_attribute 23, 3
   5              		.eabi_attribute 24, 1
   6              		.eabi_attribute 25, 1
   7              		.eabi_attribute 26, 1
   8              		.eabi_attribute 30, 1
   9              		.eabi_attribute 34, 0
  10              		.eabi_attribute 18, 4
  11              		.file	"stm32f0xx_it.c"
  12              		.text
  13              	.Ltext0:
  14              		.cfi_sections	.debug_frame
  15              		.section	.text.NMI_Handler,"ax",%progbits
  16              		.align	1
  17              		.global	NMI_Handler
  18              		.arch armv6s-m
  19              		.syntax unified
  20              		.code	16
  21              		.thumb_func
  22              		.fpu softvfp
  24              	NMI_Handler:
  25              	.LFB37:
  26              		.file 1 "Src/stm32f0xx_it.c"
   1:Src/stm32f0xx_it.c **** /* USER CODE BEGIN Header */
   2:Src/stm32f0xx_it.c **** /**
   3:Src/stm32f0xx_it.c ****   ******************************************************************************
   4:Src/stm32f0xx_it.c ****   * @file    stm32f0xx_it.c
   5:Src/stm32f0xx_it.c ****   * @brief   Interrupt Service Routines.
   6:Src/stm32f0xx_it.c ****   ******************************************************************************
   7:Src/stm32f0xx_it.c ****   * @attention
   8:Src/stm32f0xx_it.c ****   *
   9:Src/stm32f0xx_it.c ****   * <h2><center>&copy; Copyright (c) 2019 STMicroelectronics.
  10:Src/stm32f0xx_it.c ****   * All rights reserved.</center></h2>
  11:Src/stm32f0xx_it.c ****   *
  12:Src/stm32f0xx_it.c ****   * This software component is licensed by ST under BSD 3-Clause license,
  13:Src/stm32f0xx_it.c ****   * the "License"; You may not use this file except in compliance with the
  14:Src/stm32f0xx_it.c ****   * License. You may obtain a copy of the License at:
  15:Src/stm32f0xx_it.c ****   *                        opensource.org/licenses/BSD-3-Clause
  16:Src/stm32f0xx_it.c ****   *
  17:Src/stm32f0xx_it.c ****   ******************************************************************************
  18:Src/stm32f0xx_it.c ****   */
  19:Src/stm32f0xx_it.c **** /* USER CODE END Header */
  20:Src/stm32f0xx_it.c **** 
  21:Src/stm32f0xx_it.c **** /* Includes ------------------------------------------------------------------*/
  22:Src/stm32f0xx_it.c **** #include "main.h"
  23:Src/stm32f0xx_it.c **** #include "stm32f0xx_it.h"
  24:Src/stm32f0xx_it.c **** #include "port.h"
  25:Src/stm32f0xx_it.c **** /* Private includes ----------------------------------------------------------*/
  26:Src/stm32f0xx_it.c **** /* USER CODE BEGIN Includes */
  27:Src/stm32f0xx_it.c **** /* USER CODE END Includes */
  28:Src/stm32f0xx_it.c **** 
  29:Src/stm32f0xx_it.c **** /* Private typedef -----------------------------------------------------------*/
  30:Src/stm32f0xx_it.c **** /* USER CODE BEGIN TD */
  31:Src/stm32f0xx_it.c **** 
  32:Src/stm32f0xx_it.c **** /* USER CODE END TD */
ARM GAS  /tmp/ccNyWSYX.s 			page 2


  33:Src/stm32f0xx_it.c **** 
  34:Src/stm32f0xx_it.c **** /* Private define ------------------------------------------------------------*/
  35:Src/stm32f0xx_it.c **** /* USER CODE BEGIN PD */
  36:Src/stm32f0xx_it.c ****  
  37:Src/stm32f0xx_it.c **** /* USER CODE END PD */
  38:Src/stm32f0xx_it.c **** 
  39:Src/stm32f0xx_it.c **** /* Private macro -------------------------------------------------------------*/
  40:Src/stm32f0xx_it.c **** /* USER CODE BEGIN PM */
  41:Src/stm32f0xx_it.c **** 
  42:Src/stm32f0xx_it.c **** /* USER CODE END PM */
  43:Src/stm32f0xx_it.c **** 
  44:Src/stm32f0xx_it.c **** /* Private variables ---------------------------------------------------------*/
  45:Src/stm32f0xx_it.c **** /* USER CODE BEGIN PV */
  46:Src/stm32f0xx_it.c **** 
  47:Src/stm32f0xx_it.c **** /* USER CODE END PV */
  48:Src/stm32f0xx_it.c **** 
  49:Src/stm32f0xx_it.c **** /* Private function prototypes -----------------------------------------------*/
  50:Src/stm32f0xx_it.c **** /* USER CODE BEGIN PFP */
  51:Src/stm32f0xx_it.c **** 
  52:Src/stm32f0xx_it.c **** /* USER CODE END PFP */
  53:Src/stm32f0xx_it.c **** 
  54:Src/stm32f0xx_it.c **** /* Private user code ---------------------------------------------------------*/
  55:Src/stm32f0xx_it.c **** /* USER CODE BEGIN 0 */
  56:Src/stm32f0xx_it.c **** 
  57:Src/stm32f0xx_it.c **** /* USER CODE END 0 */
  58:Src/stm32f0xx_it.c **** 
  59:Src/stm32f0xx_it.c **** /* External variables --------------------------------------------------------*/
  60:Src/stm32f0xx_it.c **** extern TIM_HandleTypeDef htim14;
  61:Src/stm32f0xx_it.c **** extern UART_HandleTypeDef huart1;
  62:Src/stm32f0xx_it.c **** extern UART_HandleTypeDef huart2;
  63:Src/stm32f0xx_it.c **** /* USER CODE BEGIN EV */
  64:Src/stm32f0xx_it.c **** 
  65:Src/stm32f0xx_it.c **** /* USER CODE END EV */
  66:Src/stm32f0xx_it.c **** 
  67:Src/stm32f0xx_it.c **** /******************************************************************************/
  68:Src/stm32f0xx_it.c **** /*           Cortex-M0 Processor Interruption and Exception Handlers          */ 
  69:Src/stm32f0xx_it.c **** /******************************************************************************/
  70:Src/stm32f0xx_it.c **** /**
  71:Src/stm32f0xx_it.c ****   * @brief This function handles Non maskable interrupt.
  72:Src/stm32f0xx_it.c ****   */
  73:Src/stm32f0xx_it.c **** void NMI_Handler(void)
  74:Src/stm32f0xx_it.c **** {
  27              		.loc 1 74 1 view -0
  28              		.cfi_startproc
  29              		@ args = 0, pretend = 0, frame = 0
  30              		@ frame_needed = 0, uses_anonymous_args = 0
  31              		@ link register save eliminated.
  75:Src/stm32f0xx_it.c ****   /* USER CODE BEGIN NonMaskableInt_IRQn 0 */
  76:Src/stm32f0xx_it.c **** 
  77:Src/stm32f0xx_it.c ****   /* USER CODE END NonMaskableInt_IRQn 0 */
  78:Src/stm32f0xx_it.c ****   /* USER CODE BEGIN NonMaskableInt_IRQn 1 */
  79:Src/stm32f0xx_it.c **** 
  80:Src/stm32f0xx_it.c ****   /* USER CODE END NonMaskableInt_IRQn 1 */
  81:Src/stm32f0xx_it.c **** }
  32              		.loc 1 81 1 view .LVU1
  33              		@ sp needed
  34 0000 7047     		bx	lr
ARM GAS  /tmp/ccNyWSYX.s 			page 3


  35              		.cfi_endproc
  36              	.LFE37:
  38              		.section	.text.HardFault_Handler,"ax",%progbits
  39              		.align	1
  40              		.global	HardFault_Handler
  41              		.syntax unified
  42              		.code	16
  43              		.thumb_func
  44              		.fpu softvfp
  46              	HardFault_Handler:
  47              	.LFB38:
  82:Src/stm32f0xx_it.c **** 
  83:Src/stm32f0xx_it.c **** /**
  84:Src/stm32f0xx_it.c ****   * @brief This function handles Hard fault interrupt.
  85:Src/stm32f0xx_it.c ****   */
  86:Src/stm32f0xx_it.c **** void HardFault_Handler(void)
  87:Src/stm32f0xx_it.c **** {
  48              		.loc 1 87 1 view -0
  49              		.cfi_startproc
  50              		@ Volatile: function does not return.
  51              		@ args = 0, pretend = 0, frame = 0
  52              		@ frame_needed = 0, uses_anonymous_args = 0
  53              		@ link register save eliminated.
  54              	.L3:
  88:Src/stm32f0xx_it.c ****   /* USER CODE BEGIN HardFault_IRQn 0 */
  89:Src/stm32f0xx_it.c **** 
  90:Src/stm32f0xx_it.c ****   /* USER CODE END HardFault_IRQn 0 */
  91:Src/stm32f0xx_it.c ****   while (1)
  55              		.loc 1 91 3 discriminator 1 view .LVU3
  92:Src/stm32f0xx_it.c ****   {
  93:Src/stm32f0xx_it.c ****     /* USER CODE BEGIN W1_HardFault_IRQn 0 */
  94:Src/stm32f0xx_it.c ****     /* USER CODE END W1_HardFault_IRQn 0 */
  95:Src/stm32f0xx_it.c ****   }
  56              		.loc 1 95 3 discriminator 1 view .LVU4
  57 0000 FEE7     		b	.L3
  58              		.cfi_endproc
  59              	.LFE38:
  61              		.section	.text.SVC_Handler,"ax",%progbits
  62              		.align	1
  63              		.global	SVC_Handler
  64              		.syntax unified
  65              		.code	16
  66              		.thumb_func
  67              		.fpu softvfp
  69              	SVC_Handler:
  70              	.LFB39:
  96:Src/stm32f0xx_it.c **** }
  97:Src/stm32f0xx_it.c **** 
  98:Src/stm32f0xx_it.c **** /**
  99:Src/stm32f0xx_it.c ****   * @brief This function handles System service call via SWI instruction.
 100:Src/stm32f0xx_it.c ****   */
 101:Src/stm32f0xx_it.c **** void SVC_Handler(void)
 102:Src/stm32f0xx_it.c **** {
  71              		.loc 1 102 1 view -0
  72              		.cfi_startproc
  73              		@ args = 0, pretend = 0, frame = 0
  74              		@ frame_needed = 0, uses_anonymous_args = 0
ARM GAS  /tmp/ccNyWSYX.s 			page 4


  75              		@ link register save eliminated.
 103:Src/stm32f0xx_it.c ****   /* USER CODE BEGIN SVC_IRQn 0 */
 104:Src/stm32f0xx_it.c **** 
 105:Src/stm32f0xx_it.c ****   /* USER CODE END SVC_IRQn 0 */
 106:Src/stm32f0xx_it.c ****   /* USER CODE BEGIN SVC_IRQn 1 */
 107:Src/stm32f0xx_it.c **** 
 108:Src/stm32f0xx_it.c ****   /* USER CODE END SVC_IRQn 1 */
 109:Src/stm32f0xx_it.c **** }
  76              		.loc 1 109 1 view .LVU6
  77              		@ sp needed
  78 0000 7047     		bx	lr
  79              		.cfi_endproc
  80              	.LFE39:
  82              		.section	.text.PendSV_Handler,"ax",%progbits
  83              		.align	1
  84              		.global	PendSV_Handler
  85              		.syntax unified
  86              		.code	16
  87              		.thumb_func
  88              		.fpu softvfp
  90              	PendSV_Handler:
  91              	.LFB40:
 110:Src/stm32f0xx_it.c **** 
 111:Src/stm32f0xx_it.c **** /**
 112:Src/stm32f0xx_it.c ****   * @brief This function handles Pendable request for system service.
 113:Src/stm32f0xx_it.c ****   */
 114:Src/stm32f0xx_it.c **** void PendSV_Handler(void)
 115:Src/stm32f0xx_it.c **** {
  92              		.loc 1 115 1 view -0
  93              		.cfi_startproc
  94              		@ args = 0, pretend = 0, frame = 0
  95              		@ frame_needed = 0, uses_anonymous_args = 0
  96              		@ link register save eliminated.
 116:Src/stm32f0xx_it.c ****   /* USER CODE BEGIN PendSV_IRQn 0 */
 117:Src/stm32f0xx_it.c **** 
 118:Src/stm32f0xx_it.c ****   /* USER CODE END PendSV_IRQn 0 */
 119:Src/stm32f0xx_it.c ****   /* USER CODE BEGIN PendSV_IRQn 1 */
 120:Src/stm32f0xx_it.c **** 
 121:Src/stm32f0xx_it.c ****   /* USER CODE END PendSV_IRQn 1 */
 122:Src/stm32f0xx_it.c **** }
  97              		.loc 1 122 1 view .LVU8
  98              		@ sp needed
  99 0000 7047     		bx	lr
 100              		.cfi_endproc
 101              	.LFE40:
 103              		.section	.text.SysTick_Handler,"ax",%progbits
 104              		.align	1
 105              		.global	SysTick_Handler
 106              		.syntax unified
 107              		.code	16
 108              		.thumb_func
 109              		.fpu softvfp
 111              	SysTick_Handler:
 112              	.LFB41:
 123:Src/stm32f0xx_it.c **** 
 124:Src/stm32f0xx_it.c **** /**
 125:Src/stm32f0xx_it.c ****   * @brief This function handles System tick timer.
ARM GAS  /tmp/ccNyWSYX.s 			page 5


 126:Src/stm32f0xx_it.c ****   */
 127:Src/stm32f0xx_it.c **** void SysTick_Handler(void)
 128:Src/stm32f0xx_it.c **** {
 113              		.loc 1 128 1 view -0
 114              		.cfi_startproc
 115              		@ args = 0, pretend = 0, frame = 0
 116              		@ frame_needed = 0, uses_anonymous_args = 0
 117 0000 10B5     		push	{r4, lr}
 118              	.LCFI0:
 119              		.cfi_def_cfa_offset 8
 120              		.cfi_offset 4, -8
 121              		.cfi_offset 14, -4
 129:Src/stm32f0xx_it.c ****   /* USER CODE BEGIN SysTick_IRQn 0 */
 130:Src/stm32f0xx_it.c **** 
 131:Src/stm32f0xx_it.c ****   /* USER CODE END SysTick_IRQn 0 */
 132:Src/stm32f0xx_it.c ****   HAL_IncTick();
 122              		.loc 1 132 3 view .LVU10
 123 0002 FFF7FEFF 		bl	HAL_IncTick
 124              	.LVL0:
 133:Src/stm32f0xx_it.c ****   /* USER CODE BEGIN SysTick_IRQn 1 */
 134:Src/stm32f0xx_it.c **** 
 135:Src/stm32f0xx_it.c ****   /* USER CODE END SysTick_IRQn 1 */
 136:Src/stm32f0xx_it.c **** }
 125              		.loc 1 136 1 is_stmt 0 view .LVU11
 126              		@ sp needed
 127 0006 10BD     		pop	{r4, pc}
 128              		.cfi_endproc
 129              	.LFE41:
 131              		.section	.text.TIM14_IRQHandler,"ax",%progbits
 132              		.align	1
 133              		.global	TIM14_IRQHandler
 134              		.syntax unified
 135              		.code	16
 136              		.thumb_func
 137              		.fpu softvfp
 139              	TIM14_IRQHandler:
 140              	.LFB42:
 137:Src/stm32f0xx_it.c **** 
 138:Src/stm32f0xx_it.c **** /******************************************************************************/
 139:Src/stm32f0xx_it.c **** /* STM32F0xx Peripheral Interrupt Handlers                                    */
 140:Src/stm32f0xx_it.c **** /* Add here the Interrupt Handlers for the used peripherals.                  */
 141:Src/stm32f0xx_it.c **** /* For the available peripheral interrupt handler names,                      */
 142:Src/stm32f0xx_it.c **** /* please refer to the startup file (startup_stm32f0xx.s).                    */
 143:Src/stm32f0xx_it.c **** /******************************************************************************/
 144:Src/stm32f0xx_it.c **** 
 145:Src/stm32f0xx_it.c **** /**
 146:Src/stm32f0xx_it.c ****   * @brief This function handles TIM14 global interrupt.
 147:Src/stm32f0xx_it.c ****   */
 148:Src/stm32f0xx_it.c **** void TIM14_IRQHandler(void)
 149:Src/stm32f0xx_it.c **** {
 141              		.loc 1 149 1 is_stmt 1 view -0
 142              		.cfi_startproc
 143              		@ args = 0, pretend = 0, frame = 0
 144              		@ frame_needed = 0, uses_anonymous_args = 0
 145 0000 10B5     		push	{r4, lr}
 146              	.LCFI1:
 147              		.cfi_def_cfa_offset 8
ARM GAS  /tmp/ccNyWSYX.s 			page 6


 148              		.cfi_offset 4, -8
 149              		.cfi_offset 14, -4
 150:Src/stm32f0xx_it.c ****   /* USER CODE BEGIN TIM14_IRQn 0 */
 151:Src/stm32f0xx_it.c ****   TIM14_DAC1_IRQHandler(&htim14);
 150              		.loc 1 151 3 view .LVU13
 151 0002 044C     		ldr	r4, .L8
 152 0004 2000     		movs	r0, r4
 153 0006 FFF7FEFF 		bl	TIM14_DAC1_IRQHandler
 154              	.LVL1:
 152:Src/stm32f0xx_it.c ****   /* USER CODE END TIM14_IRQn 0 */
 153:Src/stm32f0xx_it.c ****   HAL_TIM_IRQHandler(&htim14);
 155              		.loc 1 153 3 view .LVU14
 156 000a 2000     		movs	r0, r4
 157 000c FFF7FEFF 		bl	HAL_TIM_IRQHandler
 158              	.LVL2:
 154:Src/stm32f0xx_it.c ****   /* USER CODE BEGIN TIM14_IRQn 1 */
 155:Src/stm32f0xx_it.c **** 
 156:Src/stm32f0xx_it.c ****   /* USER CODE END TIM14_IRQn 1 */
 157:Src/stm32f0xx_it.c **** }
 159              		.loc 1 157 1 is_stmt 0 view .LVU15
 160              		@ sp needed
 161 0010 10BD     		pop	{r4, pc}
 162              	.L9:
 163 0012 C046     		.align	2
 164              	.L8:
 165 0014 00000000 		.word	htim14
 166              		.cfi_endproc
 167              	.LFE42:
 169              		.section	.text.USART1_IRQHandler,"ax",%progbits
 170              		.align	1
 171              		.global	USART1_IRQHandler
 172              		.syntax unified
 173              		.code	16
 174              		.thumb_func
 175              		.fpu softvfp
 177              	USART1_IRQHandler:
 178              	.LFB43:
 158:Src/stm32f0xx_it.c **** 
 159:Src/stm32f0xx_it.c **** /**
 160:Src/stm32f0xx_it.c ****   * @brief This function handles USART1 global interrupt.
 161:Src/stm32f0xx_it.c ****   */
 162:Src/stm32f0xx_it.c **** void USART1_IRQHandler(void)
 163:Src/stm32f0xx_it.c **** {
 179              		.loc 1 163 1 is_stmt 1 view -0
 180              		.cfi_startproc
 181              		@ args = 0, pretend = 0, frame = 0
 182              		@ frame_needed = 0, uses_anonymous_args = 0
 183 0000 10B5     		push	{r4, lr}
 184              	.LCFI2:
 185              		.cfi_def_cfa_offset 8
 186              		.cfi_offset 4, -8
 187              		.cfi_offset 14, -4
 164:Src/stm32f0xx_it.c ****   /* USER CODE BEGIN USART1_IRQn 0 */
 165:Src/stm32f0xx_it.c ****     // if (FALSE!=UART_IRQ_Handler(USART1))
 166:Src/stm32f0xx_it.c ****     // {
 167:Src/stm32f0xx_it.c ****     //   return;
 168:Src/stm32f0xx_it.c ****     // }
ARM GAS  /tmp/ccNyWSYX.s 			page 7


 169:Src/stm32f0xx_it.c ****     
 170:Src/stm32f0xx_it.c ****   /* USER CODE END USART1_IRQn 0 */
 171:Src/stm32f0xx_it.c ****   HAL_UART_IRQHandler(&huart1);
 188              		.loc 1 171 3 view .LVU17
 189 0002 0248     		ldr	r0, .L11
 190 0004 FFF7FEFF 		bl	HAL_UART_IRQHandler
 191              	.LVL3:
 172:Src/stm32f0xx_it.c ****   /* USER CODE BEGIN USART1_IRQn 1 */
 173:Src/stm32f0xx_it.c **** 
 174:Src/stm32f0xx_it.c ****   /* USER CODE END USART1_IRQn 1 */
 175:Src/stm32f0xx_it.c **** }
 192              		.loc 1 175 1 is_stmt 0 view .LVU18
 193              		@ sp needed
 194 0008 10BD     		pop	{r4, pc}
 195              	.L12:
 196 000a C046     		.align	2
 197              	.L11:
 198 000c 00000000 		.word	huart1
 199              		.cfi_endproc
 200              	.LFE43:
 202              		.section	.text.USART2_IRQHandler,"ax",%progbits
 203              		.align	1
 204              		.global	USART2_IRQHandler
 205              		.syntax unified
 206              		.code	16
 207              		.thumb_func
 208              		.fpu softvfp
 210              	USART2_IRQHandler:
 211              	.LFB44:
 176:Src/stm32f0xx_it.c **** 
 177:Src/stm32f0xx_it.c **** /**
 178:Src/stm32f0xx_it.c ****   * @brief This function handles USART2 global interrupt.
 179:Src/stm32f0xx_it.c ****   */
 180:Src/stm32f0xx_it.c **** void USART2_IRQHandler(void)
 181:Src/stm32f0xx_it.c **** {
 212              		.loc 1 181 1 is_stmt 1 view -0
 213              		.cfi_startproc
 214              		@ args = 0, pretend = 0, frame = 0
 215              		@ frame_needed = 0, uses_anonymous_args = 0
 216 0000 10B5     		push	{r4, lr}
 217              	.LCFI3:
 218              		.cfi_def_cfa_offset 8
 219              		.cfi_offset 4, -8
 220              		.cfi_offset 14, -4
 182:Src/stm32f0xx_it.c ****   /* USER CODE BEGIN USART2_IRQn 0 */
 183:Src/stm32f0xx_it.c ****   if (FALSE!=UART_IRQ_Handler(USART1))
 221              		.loc 1 183 3 view .LVU20
 222              		.loc 1 183 14 is_stmt 0 view .LVU21
 223 0002 0548     		ldr	r0, .L16
 224 0004 FFF7FEFF 		bl	UART_IRQ_Handler
 225              	.LVL4:
 226              		.loc 1 183 6 view .LVU22
 227 0008 0028     		cmp	r0, #0
 228 000a 00D0     		beq	.L15
 229              	.L13:
 184:Src/stm32f0xx_it.c ****     {
 185:Src/stm32f0xx_it.c ****       return;
ARM GAS  /tmp/ccNyWSYX.s 			page 8


 186:Src/stm32f0xx_it.c ****     }
 187:Src/stm32f0xx_it.c ****   /* USER CODE END USART2_IRQn 0 */
 188:Src/stm32f0xx_it.c ****   HAL_UART_IRQHandler(&huart2);
 189:Src/stm32f0xx_it.c ****   /* USER CODE BEGIN USART2_IRQn 1 */
 190:Src/stm32f0xx_it.c **** 
 191:Src/stm32f0xx_it.c ****   /* USER CODE END USART2_IRQn 1 */
 192:Src/stm32f0xx_it.c **** }
 230              		.loc 1 192 1 view .LVU23
 231              		@ sp needed
 232 000c 10BD     		pop	{r4, pc}
 233              	.L15:
 188:Src/stm32f0xx_it.c ****   /* USER CODE BEGIN USART2_IRQn 1 */
 234              		.loc 1 188 3 is_stmt 1 view .LVU24
 235 000e 0348     		ldr	r0, .L16+4
 236 0010 FFF7FEFF 		bl	HAL_UART_IRQHandler
 237              	.LVL5:
 238 0014 FAE7     		b	.L13
 239              	.L17:
 240 0016 C046     		.align	2
 241              	.L16:
 242 0018 00380140 		.word	1073821696
 243 001c 00000000 		.word	huart2
 244              		.cfi_endproc
 245              	.LFE44:
 247              		.text
 248              	.Letext0:
 249              		.file 2 "/opt/gcc-arm-none-eabi-8-2018-q4-major/arm-none-eabi/include/machine/_default_types.h"
 250              		.file 3 "/opt/gcc-arm-none-eabi-8-2018-q4-major/arm-none-eabi/include/sys/_stdint.h"
 251              		.file 4 "Drivers/CMSIS/Device/ST/STM32F0xx/Include/system_stm32f0xx.h"
 252              		.file 5 "Drivers/CMSIS/Device/ST/STM32F0xx/Include/stm32f070x6.h"
 253              		.file 6 "/opt/gcc-arm-none-eabi-8-2018-q4-major/arm-none-eabi/include/sys/lock.h"
 254              		.file 7 "/opt/gcc-arm-none-eabi-8-2018-q4-major/arm-none-eabi/include/sys/_types.h"
 255              		.file 8 "/opt/gcc-arm-none-eabi-8-2018-q4-major/lib/gcc/arm-none-eabi/8.2.1/include/stddef.h"
 256              		.file 9 "/opt/gcc-arm-none-eabi-8-2018-q4-major/arm-none-eabi/include/sys/reent.h"
 257              		.file 10 "Drivers/STM32F0xx_HAL_Driver/Inc/stm32f0xx_hal_def.h"
 258              		.file 11 "Drivers/STM32F0xx_HAL_Driver/Inc/stm32f0xx_hal_dma.h"
 259              		.file 12 "Drivers/STM32F0xx_HAL_Driver/Inc/stm32f0xx_hal_tim.h"
 260              		.file 13 "Drivers/STM32F0xx_HAL_Driver/Inc/stm32f0xx_hal_uart.h"
 261              		.file 14 "modbus/port/port.h"
 262              		.file 15 "Drivers/STM32F0xx_HAL_Driver/Inc/stm32f0xx_hal.h"
ARM GAS  /tmp/ccNyWSYX.s 			page 9

